
assignment4_2:     file format elf64-x86-64
assignment4_2
architecture: i386:x86-64, flags 0x00000150:
HAS_SYMS, DYNAMIC, D_PAGED
start address 0x00000000000008f0

Program Header:
    PHDR off    0x0000000000000040 vaddr 0x0000000000000040 paddr 0x0000000000000040 align 2**3
         filesz 0x00000000000001f8 memsz 0x00000000000001f8 flags r--
  INTERP off    0x0000000000000238 vaddr 0x0000000000000238 paddr 0x0000000000000238 align 2**0
         filesz 0x000000000000001c memsz 0x000000000000001c flags r--
    LOAD off    0x0000000000000000 vaddr 0x0000000000000000 paddr 0x0000000000000000 align 2**21
         filesz 0x0000000000000d68 memsz 0x0000000000000d68 flags r-x
    LOAD off    0x0000000000001d60 vaddr 0x0000000000201d60 paddr 0x0000000000201d60 align 2**21
         filesz 0x00000000000002b0 memsz 0x0000000000000500 flags rw-
 DYNAMIC off    0x0000000000001d78 vaddr 0x0000000000201d78 paddr 0x0000000000201d78 align 2**3
         filesz 0x0000000000000200 memsz 0x0000000000000200 flags rw-
    NOTE off    0x0000000000000254 vaddr 0x0000000000000254 paddr 0x0000000000000254 align 2**2
         filesz 0x0000000000000044 memsz 0x0000000000000044 flags r--
EH_FRAME off    0x0000000000000bd0 vaddr 0x0000000000000bd0 paddr 0x0000000000000bd0 align 2**2
         filesz 0x000000000000004c memsz 0x000000000000004c flags r--
   STACK off    0x0000000000000000 vaddr 0x0000000000000000 paddr 0x0000000000000000 align 2**4
         filesz 0x0000000000000000 memsz 0x0000000000000000 flags rw-
   RELRO off    0x0000000000001d60 vaddr 0x0000000000201d60 paddr 0x0000000000201d60 align 2**0
         filesz 0x00000000000002a0 memsz 0x00000000000002a0 flags r--

Dynamic Section:
  NEEDED               libstdc++.so.6
  NEEDED               libc.so.6
  INIT                 0x0000000000000848
  FINI                 0x0000000000000b94
  INIT_ARRAY           0x0000000000201d60
  INIT_ARRAYSZ         0x0000000000000010
  FINI_ARRAY           0x0000000000201d70
  FINI_ARRAYSZ         0x0000000000000008
  GNU_HASH             0x0000000000000298
  STRTAB               0x0000000000000458
  SYMTAB               0x00000000000002c0
  STRSZ                0x000000000000019c
  SYMENT               0x0000000000000018
  DEBUG                0x0000000000000000
  PLTGOT               0x0000000000201f78
  PLTRELSZ             0x00000000000000a8
  PLTREL               0x0000000000000007
  JMPREL               0x00000000000007a0
  RELA                 0x0000000000000668
  RELASZ               0x0000000000000138
  RELAENT              0x0000000000000018
  FLAGS                0x0000000000000008
  FLAGS_1              0x0000000008000001
  VERNEED              0x0000000000000618
  VERNEEDNUM           0x0000000000000002
  VERSYM               0x00000000000005f4
  RELACOUNT            0x0000000000000004

Version References:
  required from libstdc++.so.6:
    0x08922974 0x00 03 GLIBCXX_3.4
  required from libc.so.6:
    0x0d696914 0x00 04 GLIBC_2.4
    0x09691a75 0x00 02 GLIBC_2.2.5

Sections:
Idx Name          Size      VMA               LMA               File off  Algn
  0 .interp       0000001c  0000000000000238  0000000000000238  00000238  2**0
                  CONTENTS, ALLOC, LOAD, READONLY, DATA
  1 .note.ABI-tag 00000020  0000000000000254  0000000000000254  00000254  2**2
                  CONTENTS, ALLOC, LOAD, READONLY, DATA
  2 .note.gnu.build-id 00000024  0000000000000274  0000000000000274  00000274  2**2
                  CONTENTS, ALLOC, LOAD, READONLY, DATA
  3 .gnu.hash     00000028  0000000000000298  0000000000000298  00000298  2**3
                  CONTENTS, ALLOC, LOAD, READONLY, DATA
  4 .dynsym       00000198  00000000000002c0  00000000000002c0  000002c0  2**3
                  CONTENTS, ALLOC, LOAD, READONLY, DATA
  5 .dynstr       0000019c  0000000000000458  0000000000000458  00000458  2**0
                  CONTENTS, ALLOC, LOAD, READONLY, DATA
  6 .gnu.version  00000022  00000000000005f4  00000000000005f4  000005f4  2**1
                  CONTENTS, ALLOC, LOAD, READONLY, DATA
  7 .gnu.version_r 00000050  0000000000000618  0000000000000618  00000618  2**3
                  CONTENTS, ALLOC, LOAD, READONLY, DATA
  8 .rela.dyn     00000138  0000000000000668  0000000000000668  00000668  2**3
                  CONTENTS, ALLOC, LOAD, READONLY, DATA
  9 .rela.plt     000000a8  00000000000007a0  00000000000007a0  000007a0  2**3
                  CONTENTS, ALLOC, LOAD, READONLY, DATA
 10 .init         00000017  0000000000000848  0000000000000848  00000848  2**2
                  CONTENTS, ALLOC, LOAD, READONLY, CODE
 11 .plt          00000080  0000000000000860  0000000000000860  00000860  2**4
                  CONTENTS, ALLOC, LOAD, READONLY, CODE
 12 .plt.got      00000008  00000000000008e0  00000000000008e0  000008e0  2**3
                  CONTENTS, ALLOC, LOAD, READONLY, CODE
 13 .text         000002a2  00000000000008f0  00000000000008f0  000008f0  2**4
                  CONTENTS, ALLOC, LOAD, READONLY, CODE
 14 .fini         00000009  0000000000000b94  0000000000000b94  00000b94  2**2
                  CONTENTS, ALLOC, LOAD, READONLY, CODE
 15 .rodata       00000030  0000000000000ba0  0000000000000ba0  00000ba0  2**3
                  CONTENTS, ALLOC, LOAD, READONLY, DATA
 16 .eh_frame_hdr 0000004c  0000000000000bd0  0000000000000bd0  00000bd0  2**2
                  CONTENTS, ALLOC, LOAD, READONLY, DATA
 17 .eh_frame     00000148  0000000000000c20  0000000000000c20  00000c20  2**3
                  CONTENTS, ALLOC, LOAD, READONLY, DATA
 18 .init_array   00000010  0000000000201d60  0000000000201d60  00001d60  2**3
                  CONTENTS, ALLOC, LOAD, DATA
 19 .fini_array   00000008  0000000000201d70  0000000000201d70  00001d70  2**3
                  CONTENTS, ALLOC, LOAD, DATA
 20 .dynamic      00000200  0000000000201d78  0000000000201d78  00001d78  2**3
                  CONTENTS, ALLOC, LOAD, DATA
 21 .got          00000088  0000000000201f78  0000000000201f78  00001f78  2**3
                  CONTENTS, ALLOC, LOAD, DATA
 22 .data         00000010  0000000000202000  0000000000202000  00002000  2**3
                  CONTENTS, ALLOC, LOAD, DATA
 23 .bss          00000240  0000000000202020  0000000000202020  00002010  2**5
                  ALLOC
 24 .comment      00000029  0000000000000000  0000000000000000  00002010  2**0
                  CONTENTS, READONLY
SYMBOL TABLE:
0000000000000238 l    d  .interp	0000000000000000              .interp
0000000000000254 l    d  .note.ABI-tag	0000000000000000              .note.ABI-tag
0000000000000274 l    d  .note.gnu.build-id	0000000000000000              .note.gnu.build-id
0000000000000298 l    d  .gnu.hash	0000000000000000              .gnu.hash
00000000000002c0 l    d  .dynsym	0000000000000000              .dynsym
0000000000000458 l    d  .dynstr	0000000000000000              .dynstr
00000000000005f4 l    d  .gnu.version	0000000000000000              .gnu.version
0000000000000618 l    d  .gnu.version_r	0000000000000000              .gnu.version_r
0000000000000668 l    d  .rela.dyn	0000000000000000              .rela.dyn
00000000000007a0 l    d  .rela.plt	0000000000000000              .rela.plt
0000000000000848 l    d  .init	0000000000000000              .init
0000000000000860 l    d  .plt	0000000000000000              .plt
00000000000008e0 l    d  .plt.got	0000000000000000              .plt.got
00000000000008f0 l    d  .text	0000000000000000              .text
0000000000000b94 l    d  .fini	0000000000000000              .fini
0000000000000ba0 l    d  .rodata	0000000000000000              .rodata
0000000000000bd0 l    d  .eh_frame_hdr	0000000000000000              .eh_frame_hdr
0000000000000c20 l    d  .eh_frame	0000000000000000              .eh_frame
0000000000201d60 l    d  .init_array	0000000000000000              .init_array
0000000000201d70 l    d  .fini_array	0000000000000000              .fini_array
0000000000201d78 l    d  .dynamic	0000000000000000              .dynamic
0000000000201f78 l    d  .got	0000000000000000              .got
0000000000202000 l    d  .data	0000000000000000              .data
0000000000202020 l    d  .bss	0000000000000000              .bss
0000000000000000 l    d  .comment	0000000000000000              .comment
0000000000000000 l    df *ABS*	0000000000000000              crtstuff.c
0000000000000920 l     F .text	0000000000000000              deregister_tm_clones
0000000000000960 l     F .text	0000000000000000              register_tm_clones
00000000000009b0 l     F .text	0000000000000000              __do_global_dtors_aux
0000000000202258 l     O .bss	0000000000000001              completed.7698
0000000000201d70 l     O .fini_array	0000000000000000              __do_global_dtors_aux_fini_array_entry
00000000000009f0 l     F .text	0000000000000000              frame_dummy
0000000000201d60 l     O .init_array	0000000000000000              __frame_dummy_init_array_entry
0000000000000000 l    df *ABS*	0000000000000000              assignment4_2.cpp
0000000000000ba8 l     O .rodata	0000000000000001              _ZStL19piecewise_construct
0000000000202259 l     O .bss	0000000000000001              _ZStL8__ioinit
0000000000000abc l     F .text	0000000000000049              _Z41__static_initialization_and_destruction_0ii
0000000000000b05 l     F .text	0000000000000015              _GLOBAL__sub_I_main
0000000000000000 l    df *ABS*	0000000000000000              crtstuff.c
0000000000000d64 l     O .eh_frame	0000000000000000              __FRAME_END__
0000000000000000 l    df *ABS*	0000000000000000              
0000000000000bd0 l       .eh_frame_hdr	0000000000000000              __GNU_EH_FRAME_HDR
0000000000201d78 l     O .dynamic	0000000000000000              _DYNAMIC
0000000000201d70 l       .init_array	0000000000000000              __init_array_end
0000000000201d60 l       .init_array	0000000000000000              __init_array_start
0000000000201f78 l     O .got	0000000000000000              _GLOBAL_OFFSET_TABLE_
0000000000202010 g       .data	0000000000000000              _edata
0000000000202000  w      .data	0000000000000000              data_start
0000000000000ba0 g     O .rodata	0000000000000004              _IO_stdin_used
0000000000000000  w    F *UND*	0000000000000000              __cxa_finalize@@GLIBC_2.2.5
00000000000009fa g     F .text	00000000000000c2              main
0000000000000000       F *UND*	0000000000000000              _ZSt4endlIcSt11char_traitsIcEERSt13basic_ostreamIT_T0_ES6_@@GLIBCXX_3.4
0000000000202008 g     O .data	0000000000000000              .hidden __dso_handle
0000000000000000       F *UND*	0000000000000000              _ZNSirsERi@@GLIBCXX_3.4
0000000000000b94 g     F .fini	0000000000000000              _fini
0000000000000000       F *UND*	0000000000000000              __cxa_atexit@@GLIBC_2.2.5
00000000000008f0 g     F .text	000000000000002b              _start
0000000000000000       F *UND*	0000000000000000              _ZStlsISt11char_traitsIcEERSt13basic_ostreamIcT_ES5_PKc@@GLIBCXX_3.4
0000000000000000       F *UND*	0000000000000000              _ZNSolsEPFRSoS_E@@GLIBCXX_3.4
0000000000000000       F *UND*	0000000000000000              __stack_chk_fail@@GLIBC_2.4
0000000000000848 g     F .init	0000000000000000              _init
0000000000202010 g     O .data	0000000000000000              .hidden __TMC_END__
0000000000202020 g     O .bss	0000000000000110              _ZSt4cout@@GLIBCXX_3.4
0000000000202000 g       .data	0000000000000000              __data_start
0000000000202260 g       .bss	0000000000000000              _end
0000000000202010 g       .bss	0000000000000000              __bss_start
0000000000000000       F *UND*	0000000000000000              _ZNSt8ios_base4InitC1Ev@@GLIBCXX_3.4
0000000000000b20 g     F .text	0000000000000065              __libc_csu_init
0000000000000000  w      *UND*	0000000000000000              _ITM_deregisterTMCloneTable
0000000000000b90 g     F .text	0000000000000002              __libc_csu_fini
0000000000202140 g     O .bss	0000000000000118              _ZSt3cin@@GLIBCXX_3.4
0000000000000000       F *UND*	0000000000000000              __libc_start_main@@GLIBC_2.2.5
0000000000000000  w      *UND*	0000000000000000              __gmon_start__
0000000000000000       F *UND*	0000000000000000              _ZNSolsEd@@GLIBCXX_3.4
0000000000000000  w      *UND*	0000000000000000              _ITM_registerTMCloneTable
0000000000000000       F *UND*	0000000000000000              _ZNSt8ios_base4InitD1Ev@@GLIBCXX_3.4


Contents of section .interp:
 0238 2f6c6962 36342f6c 642d6c69 6e75782d  /lib64/ld-linux-
 0248 7838362d 36342e73 6f2e3200           x86-64.so.2.    
Contents of section .note.ABI-tag:
 0254 04000000 10000000 01000000 474e5500  ............GNU.
 0264 00000000 03000000 02000000 00000000  ................
Contents of section .note.gnu.build-id:
 0274 04000000 14000000 03000000 474e5500  ............GNU.
 0284 52f27663 6449a663 0eb03472 a32f5c6a  R.vcdI.c..4r./\j
 0294 c422b0e2                             ."..            
Contents of section .gnu.hash:
 0298 02000000 0f000000 01000000 06000000  ................
 02a8 00001002 01000400 0f000000 00000000  ................
 02b8 14980c43 73960702                    ...Cs...        
Contents of section .dynsym:
 02c0 00000000 00000000 00000000 00000000  ................
 02d0 00000000 00000000 59010000 22000000  ........Y..."...
 02e0 00000000 00000000 00000000 00000000  ................
 02f0 89000000 12000000 00000000 00000000  ................
 0300 00000000 00000000 7e000000 12000000  ........~.......
 0310 00000000 00000000 00000000 00000000  ................
 0320 4c010000 12000000 00000000 00000000  L...............
 0330 00000000 00000000 e5000000 12000000  ................
 0340 00000000 00000000 00000000 00000000  ................
 0350 6d000000 12000000 00000000 00000000  m...............
 0360 00000000 00000000 3b010000 12000000  ........;.......
 0370 00000000 00000000 00000000 00000000  ................
 0380 c4000000 12000000 00000000 00000000  ................
 0390 00000000 00000000 1f000000 20000000  ............ ...
 03a0 00000000 00000000 00000000 00000000  ................
 03b0 68010000 12000000 00000000 00000000  h...............
 03c0 00000000 00000000 10000000 20000000  ............ ...
 03d0 00000000 00000000 00000000 00000000  ................
 03e0 27010000 12000000 00000000 00000000  '...............
 03f0 00000000 00000000 3b000000 20000000  ........;... ...
 0400 00000000 00000000 00000000 00000000  ................
 0410 55000000 12000000 00000000 00000000  U...............
 0420 00000000 00000000 1d010000 11001800  ................
 0430 20202000 00000000 10010000 00000000     .............
 0440 dc000000 11001800 40212000 00000000  ........@! .....
 0450 18010000 00000000                    ........        
Contents of section .dynstr:
 0458 006c6962 73746463 2b2b2e73 6f2e3600  .libstdc++.so.6.
 0468 5f5f676d 6f6e5f73 74617274 5f5f005f  __gmon_start__._
 0478 49544d5f 64657265 67697374 6572544d  ITM_deregisterTM
 0488 436c6f6e 65546162 6c65005f 49544d5f  CloneTable._ITM_
 0498 72656769 73746572 544d436c 6f6e6554  registerTMCloneT
 04a8 61626c65 005f5a4e 53743869 6f735f62  able._ZNSt8ios_b
 04b8 61736534 496e6974 44314576 005f5a4e  ase4InitD1Ev._ZN
 04c8 536f6c73 45504652 536f535f 45005f5a  SolsEPFRSoS_E._Z
 04d8 4e536972 73455269 005f5a53 7434656e  NSirsERi._ZSt4en
 04e8 646c4963 53743131 63686172 5f747261  dlIcSt11char_tra
 04f8 69747349 63454552 53743133 62617369  itsIcEERSt13basi
 0508 635f6f73 74726561 6d49545f 54305f45  c_ostreamIT_T0_E
 0518 53365f00 5f5a4e53 7438696f 735f6261  S6_._ZNSt8ios_ba
 0528 73653449 6e697443 31457600 5f5a5374  se4InitC1Ev._ZSt
 0538 3363696e 005f5a53 746c7349 53743131  3cin._ZStlsISt11
 0548 63686172 5f747261 69747349 63454552  char_traitsIcEER
 0558 53743133 62617369 635f6f73 74726561  St13basic_ostrea
 0568 6d496354 5f455335 5f504b63 005f5a53  mIcT_ES5_PKc._ZS
 0578 7434636f 7574005f 5a4e536f 6c734564  t4cout._ZNSolsEd
 0588 006c6962 632e736f 2e36005f 5f737461  .libc.so.6.__sta
 0598 636b5f63 686b5f66 61696c00 5f5f6378  ck_chk_fail.__cx
 05a8 615f6174 65786974 005f5f63 78615f66  a_atexit.__cxa_f
 05b8 696e616c 697a6500 5f5f6c69 62635f73  inalize.__libc_s
 05c8 74617274 5f6d6169 6e00474c 49424358  tart_main.GLIBCX
 05d8 585f332e 3400474c 4942435f 322e3400  X_3.4.GLIBC_2.4.
 05e8 474c4942 435f322e 322e3500           GLIBC_2.2.5.    
Contents of section .gnu.version:
 05f4 00000200 03000300 02000300 03000400  ................
 0604 03000000 02000000 03000000 03000300  ................
 0614 0300                                 ..              
Contents of section .gnu.version_r:
 0618 01000100 01000000 10000000 20000000  ............ ...
 0628 74299208 00000300 7a010000 00000000  t)......z.......
 0638 01000200 31010000 10000000 00000000  ....1...........
 0648 1469690d 00000400 86010000 10000000  .ii.............
 0658 751a6909 00000200 90010000 00000000  u.i.............
Contents of section .rela.dyn:
 0668 601d2000 00000000 08000000 00000000  `. .............
 0678 f0090000 00000000 681d2000 00000000  ........h. .....
 0688 08000000 00000000 050b0000 00000000  ................
 0698 701d2000 00000000 08000000 00000000  p. .............
 06a8 b0090000 00000000 08202000 00000000  .........  .....
 06b8 08000000 00000000 08202000 00000000  .........  .....
 06c8 c81f2000 00000000 06000000 01000000  .. .............
 06d8 00000000 00000000 d01f2000 00000000  .......... .....
 06e8 06000000 02000000 00000000 00000000  ................
 06f8 d81f2000 00000000 06000000 09000000  .. .............
 0708 00000000 00000000 e01f2000 00000000  .......... .....
 0718 06000000 0a000000 00000000 00000000  ................
 0728 e81f2000 00000000 06000000 0b000000  .. .............
 0738 00000000 00000000 f01f2000 00000000  .......... .....
 0748 06000000 0d000000 00000000 00000000  ................
 0758 f81f2000 00000000 06000000 0e000000  .. .............
 0768 00000000 00000000 20202000 00000000  ........   .....
 0778 05000000 0f000000 00000000 00000000  ................
 0788 40212000 00000000 05000000 10000000  @! .............
 0798 00000000 00000000                    ........        
Contents of section .rela.plt:
 07a0 901f2000 00000000 07000000 03000000  .. .............
 07b0 00000000 00000000 981f2000 00000000  .......... .....
 07c0 07000000 04000000 00000000 00000000  ................
 07d0 a01f2000 00000000 07000000 05000000  .. .............
 07e0 00000000 00000000 a81f2000 00000000  .......... .....
 07f0 07000000 06000000 00000000 00000000  ................
 0800 b01f2000 00000000 07000000 07000000  .. .............
 0810 00000000 00000000 b81f2000 00000000  .......... .....
 0820 07000000 08000000 00000000 00000000  ................
 0830 c01f2000 00000000 07000000 0c000000  .. .............
 0840 00000000 00000000                    ........        
Contents of section .init:
 0848 4883ec08 488b0595 17200048 85c07402  H...H.... .H..t.
 0858 ffd04883 c408c3                      ..H....         
Contents of section .plt:
 0860 ff351a17 2000ff25 1c172000 0f1f4000  .5.. ..%.. ...@.
 0870 ff251a17 20006800 000000e9 e0ffffff  .%.. .h.........
 0880 ff251217 20006801 000000e9 d0ffffff  .%.. .h.........
 0890 ff250a17 20006802 000000e9 c0ffffff  .%.. .h.........
 08a0 ff250217 20006803 000000e9 b0ffffff  .%.. .h.........
 08b0 ff25fa16 20006804 000000e9 a0ffffff  .%.. .h.........
 08c0 ff25f216 20006805 000000e9 90ffffff  .%.. .h.........
 08d0 ff25ea16 20006806 000000e9 80ffffff  .%.. .h.........
Contents of section .plt.got:
 08e0 ff25e216 20006690                    .%.. .f.        
Contents of section .text:
 08f0 31ed4989 d15e4889 e24883e4 f050544c  1.I..^H..H...PTL
 0900 8d058a02 0000488d 0d130200 00488d3d  ......H......H.=
 0910 e6000000 ff15c616 2000f40f 1f440000  ........ ....D..
 0920 488d3de9 16200055 488d05e1 16200048  H.=.. .UH.... .H
 0930 39f84889 e5741948 8b059a16 20004885  9.H..t.H.... .H.
 0940 c0740d5d ffe0662e 0f1f8400 00000000  .t.]..f.........
 0950 5dc30f1f 4000662e 0f1f8400 00000000  ]...@.f.........
 0960 488d3da9 16200048 8d35a216 20005548  H.=.. .H.5.. .UH
 0970 29fe4889 e548c1fe 034889f0 48c1e83f  ).H..H...H..H..?
 0980 4801c648 d1fe7418 488b0561 16200048  H..H..t.H..a. .H
 0990 85c0740c 5dffe066 0f1f8400 00000000  ..t.]..f........
 09a0 5dc30f1f 4000662e 0f1f8400 00000000  ]...@.f.........
 09b0 803da118 20000075 2f48833d 07162000  .=.. ..u/H.=.. .
 09c0 00554889 e5740c48 8b3d3a16 2000e80d  .UH..t.H.=:. ...
 09d0 ffffffe8 48ffffff c6057918 2000015d  ....H.....y. ..]
 09e0 c30f1f80 00000000 f3c3660f 1f440000  ..........f..D..
 09f0 554889e5 5de966ff ffff5548 89e54883  UH..].f...UH..H.
 0a00 ec306448 8b042528 00000048 8945f831  .0dH..%(...H.E.1
 0a10 c0488d35 91010000 488d3d01 162000e8  .H.5....H.=.. ..
 0a20 6cfeffff 4889c248 8b05a215 20004889  l...H..H.... .H.
 0a30 c64889d7 e867feff ff488d45 ec4889c6  .H...g...H.E.H..
 0a40 488d3df9 162000e8 24feffff 8b55ec8b  H.=.. ..$....U..
 0a50 45ec0faf d08b45ec 0fafc289 45ec8b45  E.....E.....E..E
 0a60 ecf20f2a c0f20f10 0d5b0100 00f20f59  ...*.....[.....Y
 0a70 c1f20f11 45f0488d 353a0100 00488d3d  ....E.H.5:...H.=
 0a80 9c152000 e807feff ff4889c2 488b45f0  .. ......H..H.E.
 0a90 488945d8 f20f1045 d84889d7 e82ffeff  H.E....E.H.../..
 0aa0 ffb80000 0000488b 4df86448 330c2528  ......H.M.dH3.%(
 0ab0 00000074 05e8f6fd ffffc9c3 554889e5  ...t........UH..
 0ac0 4883ec10 897dfc89 75f8837d fc017532  H....}..u..}..u2
 0ad0 817df8ff ff000075 29488d3d 79172000  .}.....u)H.=y. .
 0ae0 e8dbfdff ff488d15 1c152000 488d3566  .....H.... .H.5f
 0af0 17200048 8b05fe14 20004889 c7e87efd  . .H.... .H...~.
 0b00 ffff90c9 c3554889 e5beffff 0000bf01  .....UH.........
 0b10 000000e8 a4ffffff 5dc3660f 1f440000  ........].f..D..
 0b20 41574156 4989d741 5541544c 8d252e12  AWAVI..AUATL.%..
 0b30 20005548 8d2d3612 20005341 89fd4989   .UH.-6. .SA..I.
 0b40 f64c29e5 4883ec08 48c1fd03 e8f7fcff  .L).H...H.......
 0b50 ff4885ed 742031db 0f1f8400 00000000  .H..t 1.........
 0b60 4c89fa4c 89f64489 ef41ff14 dc4883c3  L..L..D..A...H..
 0b70 014839dd 75ea4883 c4085b5d 415c415d  .H9.u.H...[]A\A]
 0b80 415e415f c390662e 0f1f8400 00000000  A^A_..f.........
 0b90 f3c3                                 ..              
Contents of section .fini:
 0b94 4883ec08 4883c408 c3                 H...H....       
Contents of section .rodata:
 0ba0 01000200 00000000 00456e74 65722052  .........Enter R
 0bb0 61646975 733a0054 68652076 6f6c756d  adius:.The volum
 0bc0 65206973 3a200000 1f85eb51 b81e0940  e is: .....Q...@
Contents of section .eh_frame_hdr:
 0bd0 011b033b 4c000000 08000000 90fcffff  ...;L...........
 0be0 98000000 10fdffff c0000000 20fdffff  ............ ...
 0bf0 68000000 2afeffff d8000000 ecfeffff  h...*...........
 0c00 f8000000 35ffffff 18010000 50ffffff  ....5.......P...
 0c10 38010000 c0ffffff 80010000           8...........    
Contents of section .eh_frame:
 0c20 14000000 00000000 017a5200 01781001  .........zR..x..
 0c30 1b0c0708 90010710 14000000 1c000000  ................
 0c40 b0fcffff 2b000000 00000000 00000000  ....+...........
 0c50 14000000 00000000 017a5200 01781001  .........zR..x..
 0c60 1b0c0708 90010000 24000000 1c000000  ........$.......
 0c70 f0fbffff 80000000 000e1046 0e184a0f  ...........F..J.
 0c80 0b770880 003f1a3b 2a332422 00000000  .w...?.;*3$"....
 0c90 14000000 44000000 48fcffff 08000000  ....D...H.......
 0ca0 00000000 00000000 1c000000 5c000000  ............\...
 0cb0 4afdffff c2000000 00410e10 8602430d  J........A....C.
 0cc0 0602bd0c 07080000 1c000000 7c000000  ............|...
 0cd0 ecfdffff 49000000 00410e10 8602430d  ....I....A....C.
 0ce0 0602440c 07080000 1c000000 9c000000  ..D.............
 0cf0 15feffff 15000000 00410e10 8602430d  .........A....C.
 0d00 06500c07 08000000 44000000 bc000000  .P......D.......
 0d10 10feffff 65000000 00420e10 8f02420e  ....e....B....B.
 0d20 188e0345 0e208d04 420e288c 05480e30  ...E. ..B.(..H.0
 0d30 8606480e 3883074d 0e40720e 38410e30  ..H.8..M.@r.8A.0
 0d40 410e2842 0e20420e 18420e10 420e0800  A.(B. B..B..B...
 0d50 10000000 04010000 38feffff 02000000  ........8.......
 0d60 00000000 00000000                    ........        
Contents of section .init_array:
 201d60 f0090000 00000000 050b0000 00000000  ................
Contents of section .fini_array:
 201d70 b0090000 00000000                    ........        
Contents of section .dynamic:
 201d78 01000000 00000000 01000000 00000000  ................
 201d88 01000000 00000000 31010000 00000000  ........1.......
 201d98 0c000000 00000000 48080000 00000000  ........H.......
 201da8 0d000000 00000000 940b0000 00000000  ................
 201db8 19000000 00000000 601d2000 00000000  ........`. .....
 201dc8 1b000000 00000000 10000000 00000000  ................
 201dd8 1a000000 00000000 701d2000 00000000  ........p. .....
 201de8 1c000000 00000000 08000000 00000000  ................
 201df8 f5feff6f 00000000 98020000 00000000  ...o............
 201e08 05000000 00000000 58040000 00000000  ........X.......
 201e18 06000000 00000000 c0020000 00000000  ................
 201e28 0a000000 00000000 9c010000 00000000  ................
 201e38 0b000000 00000000 18000000 00000000  ................
 201e48 15000000 00000000 00000000 00000000  ................
 201e58 03000000 00000000 781f2000 00000000  ........x. .....
 201e68 02000000 00000000 a8000000 00000000  ................
 201e78 14000000 00000000 07000000 00000000  ................
 201e88 17000000 00000000 a0070000 00000000  ................
 201e98 07000000 00000000 68060000 00000000  ........h.......
 201ea8 08000000 00000000 38010000 00000000  ........8.......
 201eb8 09000000 00000000 18000000 00000000  ................
 201ec8 1e000000 00000000 08000000 00000000  ................
 201ed8 fbffff6f 00000000 01000008 00000000  ...o............
 201ee8 feffff6f 00000000 18060000 00000000  ...o............
 201ef8 ffffff6f 00000000 02000000 00000000  ...o............
 201f08 f0ffff6f 00000000 f4050000 00000000  ...o............
 201f18 f9ffff6f 00000000 04000000 00000000  ...o............
 201f28 00000000 00000000 00000000 00000000  ................
 201f38 00000000 00000000 00000000 00000000  ................
 201f48 00000000 00000000 00000000 00000000  ................
 201f58 00000000 00000000 00000000 00000000  ................
 201f68 00000000 00000000 00000000 00000000  ................
Contents of section .got:
 201f78 781d2000 00000000 00000000 00000000  x. .............
 201f88 00000000 00000000 76080000 00000000  ........v.......
 201f98 86080000 00000000 96080000 00000000  ................
 201fa8 a6080000 00000000 b6080000 00000000  ................
 201fb8 c6080000 00000000 d6080000 00000000  ................
 201fc8 00000000 00000000 00000000 00000000  ................
 201fd8 00000000 00000000 00000000 00000000  ................
 201fe8 00000000 00000000 00000000 00000000  ................
 201ff8 00000000 00000000                    ........        
Contents of section .data:
 202000 00000000 00000000 08202000 00000000  .........  .....
Contents of section .comment:
 0000 4743433a 20285562 756e7475 20372e35  GCC: (Ubuntu 7.5
 0010 2e302d33 7562756e 7475317e 31382e30  .0-3ubuntu1~18.0
 0020 34292037 2e352e30 00                 4) 7.5.0.       

Disassembly of section .init:

0000000000000848 <_init>:
 848:	48 83 ec 08          	sub    $0x8,%rsp
 84c:	48 8b 05 95 17 20 00 	mov    0x201795(%rip),%rax        # 201fe8 <__gmon_start__>
 853:	48 85 c0             	test   %rax,%rax
 856:	74 02                	je     85a <_init+0x12>
 858:	ff d0                	callq  *%rax
 85a:	48 83 c4 08          	add    $0x8,%rsp
 85e:	c3                   	retq   

Disassembly of section .plt:

0000000000000860 <.plt>:
 860:	ff 35 1a 17 20 00    	pushq  0x20171a(%rip)        # 201f80 <_GLOBAL_OFFSET_TABLE_+0x8>
 866:	ff 25 1c 17 20 00    	jmpq   *0x20171c(%rip)        # 201f88 <_GLOBAL_OFFSET_TABLE_+0x10>
 86c:	0f 1f 40 00          	nopl   0x0(%rax)

0000000000000870 <_ZNSirsERi@plt>:
 870:	ff 25 1a 17 20 00    	jmpq   *0x20171a(%rip)        # 201f90 <_ZNSirsERi@GLIBCXX_3.4>
 876:	68 00 00 00 00       	pushq  $0x0
 87b:	e9 e0 ff ff ff       	jmpq   860 <.plt>

0000000000000880 <__cxa_atexit@plt>:
 880:	ff 25 12 17 20 00    	jmpq   *0x201712(%rip)        # 201f98 <__cxa_atexit@GLIBC_2.2.5>
 886:	68 01 00 00 00       	pushq  $0x1
 88b:	e9 d0 ff ff ff       	jmpq   860 <.plt>

0000000000000890 <_ZStlsISt11char_traitsIcEERSt13basic_ostreamIcT_ES5_PKc@plt>:
 890:	ff 25 0a 17 20 00    	jmpq   *0x20170a(%rip)        # 201fa0 <_ZStlsISt11char_traitsIcEERSt13basic_ostreamIcT_ES5_PKc@GLIBCXX_3.4>
 896:	68 02 00 00 00       	pushq  $0x2
 89b:	e9 c0 ff ff ff       	jmpq   860 <.plt>

00000000000008a0 <_ZNSolsEPFRSoS_E@plt>:
 8a0:	ff 25 02 17 20 00    	jmpq   *0x201702(%rip)        # 201fa8 <_ZNSolsEPFRSoS_E@GLIBCXX_3.4>
 8a6:	68 03 00 00 00       	pushq  $0x3
 8ab:	e9 b0 ff ff ff       	jmpq   860 <.plt>

00000000000008b0 <__stack_chk_fail@plt>:
 8b0:	ff 25 fa 16 20 00    	jmpq   *0x2016fa(%rip)        # 201fb0 <__stack_chk_fail@GLIBC_2.4>
 8b6:	68 04 00 00 00       	pushq  $0x4
 8bb:	e9 a0 ff ff ff       	jmpq   860 <.plt>

00000000000008c0 <_ZNSt8ios_base4InitC1Ev@plt>:
 8c0:	ff 25 f2 16 20 00    	jmpq   *0x2016f2(%rip)        # 201fb8 <_ZNSt8ios_base4InitC1Ev@GLIBCXX_3.4>
 8c6:	68 05 00 00 00       	pushq  $0x5
 8cb:	e9 90 ff ff ff       	jmpq   860 <.plt>

00000000000008d0 <_ZNSolsEd@plt>:
 8d0:	ff 25 ea 16 20 00    	jmpq   *0x2016ea(%rip)        # 201fc0 <_ZNSolsEd@GLIBCXX_3.4>
 8d6:	68 06 00 00 00       	pushq  $0x6
 8db:	e9 80 ff ff ff       	jmpq   860 <.plt>

Disassembly of section .plt.got:

00000000000008e0 <__cxa_finalize@plt>:
 8e0:	ff 25 e2 16 20 00    	jmpq   *0x2016e2(%rip)        # 201fc8 <__cxa_finalize@GLIBC_2.2.5>
 8e6:	66 90                	xchg   %ax,%ax

Disassembly of section .text:

00000000000008f0 <_start>:
 8f0:	31 ed                	xor    %ebp,%ebp
 8f2:	49 89 d1             	mov    %rdx,%r9
 8f5:	5e                   	pop    %rsi
 8f6:	48 89 e2             	mov    %rsp,%rdx
 8f9:	48 83 e4 f0          	and    $0xfffffffffffffff0,%rsp
 8fd:	50                   	push   %rax
 8fe:	54                   	push   %rsp
 8ff:	4c 8d 05 8a 02 00 00 	lea    0x28a(%rip),%r8        # b90 <__libc_csu_fini>
 906:	48 8d 0d 13 02 00 00 	lea    0x213(%rip),%rcx        # b20 <__libc_csu_init>
 90d:	48 8d 3d e6 00 00 00 	lea    0xe6(%rip),%rdi        # 9fa <main>
 914:	ff 15 c6 16 20 00    	callq  *0x2016c6(%rip)        # 201fe0 <__libc_start_main@GLIBC_2.2.5>
 91a:	f4                   	hlt    
 91b:	0f 1f 44 00 00       	nopl   0x0(%rax,%rax,1)

0000000000000920 <deregister_tm_clones>:
 920:	48 8d 3d e9 16 20 00 	lea    0x2016e9(%rip),%rdi        # 202010 <__TMC_END__>
 927:	55                   	push   %rbp
 928:	48 8d 05 e1 16 20 00 	lea    0x2016e1(%rip),%rax        # 202010 <__TMC_END__>
 92f:	48 39 f8             	cmp    %rdi,%rax
 932:	48 89 e5             	mov    %rsp,%rbp
 935:	74 19                	je     950 <deregister_tm_clones+0x30>
 937:	48 8b 05 9a 16 20 00 	mov    0x20169a(%rip),%rax        # 201fd8 <_ITM_deregisterTMCloneTable>
 93e:	48 85 c0             	test   %rax,%rax
 941:	74 0d                	je     950 <deregister_tm_clones+0x30>
 943:	5d                   	pop    %rbp
 944:	ff e0                	jmpq   *%rax
 946:	66 2e 0f 1f 84 00 00 	nopw   %cs:0x0(%rax,%rax,1)
 94d:	00 00 00 
 950:	5d                   	pop    %rbp
 951:	c3                   	retq   
 952:	0f 1f 40 00          	nopl   0x0(%rax)
 956:	66 2e 0f 1f 84 00 00 	nopw   %cs:0x0(%rax,%rax,1)
 95d:	00 00 00 

0000000000000960 <register_tm_clones>:
 960:	48 8d 3d a9 16 20 00 	lea    0x2016a9(%rip),%rdi        # 202010 <__TMC_END__>
 967:	48 8d 35 a2 16 20 00 	lea    0x2016a2(%rip),%rsi        # 202010 <__TMC_END__>
 96e:	55                   	push   %rbp
 96f:	48 29 fe             	sub    %rdi,%rsi
 972:	48 89 e5             	mov    %rsp,%rbp
 975:	48 c1 fe 03          	sar    $0x3,%rsi
 979:	48 89 f0             	mov    %rsi,%rax
 97c:	48 c1 e8 3f          	shr    $0x3f,%rax
 980:	48 01 c6             	add    %rax,%rsi
 983:	48 d1 fe             	sar    %rsi
 986:	74 18                	je     9a0 <register_tm_clones+0x40>
 988:	48 8b 05 61 16 20 00 	mov    0x201661(%rip),%rax        # 201ff0 <_ITM_registerTMCloneTable>
 98f:	48 85 c0             	test   %rax,%rax
 992:	74 0c                	je     9a0 <register_tm_clones+0x40>
 994:	5d                   	pop    %rbp
 995:	ff e0                	jmpq   *%rax
 997:	66 0f 1f 84 00 00 00 	nopw   0x0(%rax,%rax,1)
 99e:	00 00 
 9a0:	5d                   	pop    %rbp
 9a1:	c3                   	retq   
 9a2:	0f 1f 40 00          	nopl   0x0(%rax)
 9a6:	66 2e 0f 1f 84 00 00 	nopw   %cs:0x0(%rax,%rax,1)
 9ad:	00 00 00 

00000000000009b0 <__do_global_dtors_aux>:
 9b0:	80 3d a1 18 20 00 00 	cmpb   $0x0,0x2018a1(%rip)        # 202258 <completed.7698>
 9b7:	75 2f                	jne    9e8 <__do_global_dtors_aux+0x38>
 9b9:	48 83 3d 07 16 20 00 	cmpq   $0x0,0x201607(%rip)        # 201fc8 <__cxa_finalize@GLIBC_2.2.5>
 9c0:	00 
 9c1:	55                   	push   %rbp
 9c2:	48 89 e5             	mov    %rsp,%rbp
 9c5:	74 0c                	je     9d3 <__do_global_dtors_aux+0x23>
 9c7:	48 8b 3d 3a 16 20 00 	mov    0x20163a(%rip),%rdi        # 202008 <__dso_handle>
 9ce:	e8 0d ff ff ff       	callq  8e0 <__cxa_finalize@plt>
 9d3:	e8 48 ff ff ff       	callq  920 <deregister_tm_clones>
 9d8:	c6 05 79 18 20 00 01 	movb   $0x1,0x201879(%rip)        # 202258 <completed.7698>
 9df:	5d                   	pop    %rbp
 9e0:	c3                   	retq   
 9e1:	0f 1f 80 00 00 00 00 	nopl   0x0(%rax)
 9e8:	f3 c3                	repz retq 
 9ea:	66 0f 1f 44 00 00    	nopw   0x0(%rax,%rax,1)

00000000000009f0 <frame_dummy>:
 9f0:	55                   	push   %rbp
 9f1:	48 89 e5             	mov    %rsp,%rbp
 9f4:	5d                   	pop    %rbp
 9f5:	e9 66 ff ff ff       	jmpq   960 <register_tm_clones>

00000000000009fa <main>:
 9fa:	55                   	push   %rbp
 9fb:	48 89 e5             	mov    %rsp,%rbp
 9fe:	48 83 ec 30          	sub    $0x30,%rsp
 a02:	64 48 8b 04 25 28 00 	mov    %fs:0x28,%rax
 a09:	00 00 
 a0b:	48 89 45 f8          	mov    %rax,-0x8(%rbp)
 a0f:	31 c0                	xor    %eax,%eax
 a11:	48 8d 35 91 01 00 00 	lea    0x191(%rip),%rsi        # ba9 <_ZStL19piecewise_construct+0x1>
 a18:	48 8d 3d 01 16 20 00 	lea    0x201601(%rip),%rdi        # 202020 <_ZSt4cout@@GLIBCXX_3.4>
 a1f:	e8 6c fe ff ff       	callq  890 <_ZStlsISt11char_traitsIcEERSt13basic_ostreamIcT_ES5_PKc@plt>
 a24:	48 89 c2             	mov    %rax,%rdx
 a27:	48 8b 05 a2 15 20 00 	mov    0x2015a2(%rip),%rax        # 201fd0 <_ZSt4endlIcSt11char_traitsIcEERSt13basic_ostreamIT_T0_ES6_@GLIBCXX_3.4>
 a2e:	48 89 c6             	mov    %rax,%rsi
 a31:	48 89 d7             	mov    %rdx,%rdi
 a34:	e8 67 fe ff ff       	callq  8a0 <_ZNSolsEPFRSoS_E@plt>
 a39:	48 8d 45 ec          	lea    -0x14(%rbp),%rax
 a3d:	48 89 c6             	mov    %rax,%rsi
 a40:	48 8d 3d f9 16 20 00 	lea    0x2016f9(%rip),%rdi        # 202140 <_ZSt3cin@@GLIBCXX_3.4>
 a47:	e8 24 fe ff ff       	callq  870 <_ZNSirsERi@plt>
 a4c:	8b 55 ec             	mov    -0x14(%rbp),%edx
 a4f:	8b 45 ec             	mov    -0x14(%rbp),%eax
 a52:	0f af d0             	imul   %eax,%edx
 a55:	8b 45 ec             	mov    -0x14(%rbp),%eax
 a58:	0f af c2             	imul   %edx,%eax
 a5b:	89 45 ec             	mov    %eax,-0x14(%rbp)
 a5e:	8b 45 ec             	mov    -0x14(%rbp),%eax
 a61:	f2 0f 2a c0          	cvtsi2sd %eax,%xmm0
 a65:	f2 0f 10 0d 5b 01 00 	movsd  0x15b(%rip),%xmm1        # bc8 <_ZStL19piecewise_construct+0x20>
 a6c:	00 
 a6d:	f2 0f 59 c1          	mulsd  %xmm1,%xmm0
 a71:	f2 0f 11 45 f0       	movsd  %xmm0,-0x10(%rbp)
 a76:	48 8d 35 3a 01 00 00 	lea    0x13a(%rip),%rsi        # bb7 <_ZStL19piecewise_construct+0xf>
 a7d:	48 8d 3d 9c 15 20 00 	lea    0x20159c(%rip),%rdi        # 202020 <_ZSt4cout@@GLIBCXX_3.4>
 a84:	e8 07 fe ff ff       	callq  890 <_ZStlsISt11char_traitsIcEERSt13basic_ostreamIcT_ES5_PKc@plt>
 a89:	48 89 c2             	mov    %rax,%rdx
 a8c:	48 8b 45 f0          	mov    -0x10(%rbp),%rax
 a90:	48 89 45 d8          	mov    %rax,-0x28(%rbp)
 a94:	f2 0f 10 45 d8       	movsd  -0x28(%rbp),%xmm0
 a99:	48 89 d7             	mov    %rdx,%rdi
 a9c:	e8 2f fe ff ff       	callq  8d0 <_ZNSolsEd@plt>
 aa1:	b8 00 00 00 00       	mov    $0x0,%eax
 aa6:	48 8b 4d f8          	mov    -0x8(%rbp),%rcx
 aaa:	64 48 33 0c 25 28 00 	xor    %fs:0x28,%rcx
 ab1:	00 00 
 ab3:	74 05                	je     aba <main+0xc0>
 ab5:	e8 f6 fd ff ff       	callq  8b0 <__stack_chk_fail@plt>
 aba:	c9                   	leaveq 
 abb:	c3                   	retq   

0000000000000abc <_Z41__static_initialization_and_destruction_0ii>:
 abc:	55                   	push   %rbp
 abd:	48 89 e5             	mov    %rsp,%rbp
 ac0:	48 83 ec 10          	sub    $0x10,%rsp
 ac4:	89 7d fc             	mov    %edi,-0x4(%rbp)
 ac7:	89 75 f8             	mov    %esi,-0x8(%rbp)
 aca:	83 7d fc 01          	cmpl   $0x1,-0x4(%rbp)
 ace:	75 32                	jne    b02 <_Z41__static_initialization_and_destruction_0ii+0x46>
 ad0:	81 7d f8 ff ff 00 00 	cmpl   $0xffff,-0x8(%rbp)
 ad7:	75 29                	jne    b02 <_Z41__static_initialization_and_destruction_0ii+0x46>
 ad9:	48 8d 3d 79 17 20 00 	lea    0x201779(%rip),%rdi        # 202259 <_ZStL8__ioinit>
 ae0:	e8 db fd ff ff       	callq  8c0 <_ZNSt8ios_base4InitC1Ev@plt>
 ae5:	48 8d 15 1c 15 20 00 	lea    0x20151c(%rip),%rdx        # 202008 <__dso_handle>
 aec:	48 8d 35 66 17 20 00 	lea    0x201766(%rip),%rsi        # 202259 <_ZStL8__ioinit>
 af3:	48 8b 05 fe 14 20 00 	mov    0x2014fe(%rip),%rax        # 201ff8 <_ZNSt8ios_base4InitD1Ev@GLIBCXX_3.4>
 afa:	48 89 c7             	mov    %rax,%rdi
 afd:	e8 7e fd ff ff       	callq  880 <__cxa_atexit@plt>
 b02:	90                   	nop
 b03:	c9                   	leaveq 
 b04:	c3                   	retq   

0000000000000b05 <_GLOBAL__sub_I_main>:
 b05:	55                   	push   %rbp
 b06:	48 89 e5             	mov    %rsp,%rbp
 b09:	be ff ff 00 00       	mov    $0xffff,%esi
 b0e:	bf 01 00 00 00       	mov    $0x1,%edi
 b13:	e8 a4 ff ff ff       	callq  abc <_Z41__static_initialization_and_destruction_0ii>
 b18:	5d                   	pop    %rbp
 b19:	c3                   	retq   
 b1a:	66 0f 1f 44 00 00    	nopw   0x0(%rax,%rax,1)

0000000000000b20 <__libc_csu_init>:
 b20:	41 57                	push   %r15
 b22:	41 56                	push   %r14
 b24:	49 89 d7             	mov    %rdx,%r15
 b27:	41 55                	push   %r13
 b29:	41 54                	push   %r12
 b2b:	4c 8d 25 2e 12 20 00 	lea    0x20122e(%rip),%r12        # 201d60 <__frame_dummy_init_array_entry>
 b32:	55                   	push   %rbp
 b33:	48 8d 2d 36 12 20 00 	lea    0x201236(%rip),%rbp        # 201d70 <__init_array_end>
 b3a:	53                   	push   %rbx
 b3b:	41 89 fd             	mov    %edi,%r13d
 b3e:	49 89 f6             	mov    %rsi,%r14
 b41:	4c 29 e5             	sub    %r12,%rbp
 b44:	48 83 ec 08          	sub    $0x8,%rsp
 b48:	48 c1 fd 03          	sar    $0x3,%rbp
 b4c:	e8 f7 fc ff ff       	callq  848 <_init>
 b51:	48 85 ed             	test   %rbp,%rbp
 b54:	74 20                	je     b76 <__libc_csu_init+0x56>
 b56:	31 db                	xor    %ebx,%ebx
 b58:	0f 1f 84 00 00 00 00 	nopl   0x0(%rax,%rax,1)
 b5f:	00 
 b60:	4c 89 fa             	mov    %r15,%rdx
 b63:	4c 89 f6             	mov    %r14,%rsi
 b66:	44 89 ef             	mov    %r13d,%edi
 b69:	41 ff 14 dc          	callq  *(%r12,%rbx,8)
 b6d:	48 83 c3 01          	add    $0x1,%rbx
 b71:	48 39 dd             	cmp    %rbx,%rbp
 b74:	75 ea                	jne    b60 <__libc_csu_init+0x40>
 b76:	48 83 c4 08          	add    $0x8,%rsp
 b7a:	5b                   	pop    %rbx
 b7b:	5d                   	pop    %rbp
 b7c:	41 5c                	pop    %r12
 b7e:	41 5d                	pop    %r13
 b80:	41 5e                	pop    %r14
 b82:	41 5f                	pop    %r15
 b84:	c3                   	retq   
 b85:	90                   	nop
 b86:	66 2e 0f 1f 84 00 00 	nopw   %cs:0x0(%rax,%rax,1)
 b8d:	00 00 00 

0000000000000b90 <__libc_csu_fini>:
 b90:	f3 c3                	repz retq 

Disassembly of section .fini:

0000000000000b94 <_fini>:
 b94:	48 83 ec 08          	sub    $0x8,%rsp
 b98:	48 83 c4 08          	add    $0x8,%rsp
 b9c:	c3                   	retq   
