
assignment4_3:     file format elf64-x86-64
assignment4_3
architecture: i386:x86-64, flags 0x00000150:
HAS_SYMS, DYNAMIC, D_PAGED
start address 0x00000000000008b0

Program Header:
    PHDR off    0x0000000000000040 vaddr 0x0000000000000040 paddr 0x0000000000000040 align 2**3
         filesz 0x00000000000001f8 memsz 0x00000000000001f8 flags r--
  INTERP off    0x0000000000000238 vaddr 0x0000000000000238 paddr 0x0000000000000238 align 2**0
         filesz 0x000000000000001c memsz 0x000000000000001c flags r--
    LOAD off    0x0000000000000000 vaddr 0x0000000000000000 paddr 0x0000000000000000 align 2**21
         filesz 0x0000000000000de8 memsz 0x0000000000000de8 flags r-x
    LOAD off    0x0000000000001d68 vaddr 0x0000000000201d68 paddr 0x0000000000201d68 align 2**21
         filesz 0x00000000000002a8 memsz 0x00000000000004f8 flags rw-
 DYNAMIC off    0x0000000000001d80 vaddr 0x0000000000201d80 paddr 0x0000000000201d80 align 2**3
         filesz 0x0000000000000200 memsz 0x0000000000000200 flags rw-
    NOTE off    0x0000000000000254 vaddr 0x0000000000000254 paddr 0x0000000000000254 align 2**2
         filesz 0x0000000000000044 memsz 0x0000000000000044 flags r--
EH_FRAME off    0x0000000000000c50 vaddr 0x0000000000000c50 paddr 0x0000000000000c50 align 2**2
         filesz 0x000000000000004c memsz 0x000000000000004c flags r--
   STACK off    0x0000000000000000 vaddr 0x0000000000000000 paddr 0x0000000000000000 align 2**4
         filesz 0x0000000000000000 memsz 0x0000000000000000 flags rw-
   RELRO off    0x0000000000001d68 vaddr 0x0000000000201d68 paddr 0x0000000000201d68 align 2**0
         filesz 0x0000000000000298 memsz 0x0000000000000298 flags r--

Dynamic Section:
  NEEDED               libstdc++.so.6
  NEEDED               libc.so.6
  INIT                 0x0000000000000810
  FINI                 0x0000000000000c24
  INIT_ARRAY           0x0000000000201d68
  INIT_ARRAYSZ         0x0000000000000010
  FINI_ARRAY           0x0000000000201d78
  FINI_ARRAYSZ         0x0000000000000008
  GNU_HASH             0x0000000000000298
  STRTAB               0x0000000000000440
  SYMTAB               0x00000000000002c0
  STRSZ                0x0000000000000192
  SYMENT               0x0000000000000018
  DEBUG                0x0000000000000000
  PLTGOT               0x0000000000201f80
  PLTRELSZ             0x0000000000000090
  PLTREL               0x0000000000000007
  JMPREL               0x0000000000000780
  RELA                 0x0000000000000648
  RELASZ               0x0000000000000138
  RELAENT              0x0000000000000018
  FLAGS                0x0000000000000008
  FLAGS_1              0x0000000008000001
  VERNEED              0x00000000000005f8
  VERNEEDNUM           0x0000000000000002
  VERSYM               0x00000000000005d2
  RELACOUNT            0x0000000000000004

Version References:
  required from libstdc++.so.6:
    0x08922974 0x00 03 GLIBCXX_3.4
  required from libc.so.6:
    0x0d696914 0x00 04 GLIBC_2.4
    0x09691a75 0x00 02 GLIBC_2.2.5

Sections:
Idx Name          Size      VMA               LMA               File off  Algn
  0 .interp       0000001c  0000000000000238  0000000000000238  00000238  2**0
                  CONTENTS, ALLOC, LOAD, READONLY, DATA
  1 .note.ABI-tag 00000020  0000000000000254  0000000000000254  00000254  2**2
                  CONTENTS, ALLOC, LOAD, READONLY, DATA
  2 .note.gnu.build-id 00000024  0000000000000274  0000000000000274  00000274  2**2
                  CONTENTS, ALLOC, LOAD, READONLY, DATA
  3 .gnu.hash     00000028  0000000000000298  0000000000000298  00000298  2**3
                  CONTENTS, ALLOC, LOAD, READONLY, DATA
  4 .dynsym       00000180  00000000000002c0  00000000000002c0  000002c0  2**3
                  CONTENTS, ALLOC, LOAD, READONLY, DATA
  5 .dynstr       00000192  0000000000000440  0000000000000440  00000440  2**0
                  CONTENTS, ALLOC, LOAD, READONLY, DATA
  6 .gnu.version  00000020  00000000000005d2  00000000000005d2  000005d2  2**1
                  CONTENTS, ALLOC, LOAD, READONLY, DATA
  7 .gnu.version_r 00000050  00000000000005f8  00000000000005f8  000005f8  2**3
                  CONTENTS, ALLOC, LOAD, READONLY, DATA
  8 .rela.dyn     00000138  0000000000000648  0000000000000648  00000648  2**3
                  CONTENTS, ALLOC, LOAD, READONLY, DATA
  9 .rela.plt     00000090  0000000000000780  0000000000000780  00000780  2**3
                  CONTENTS, ALLOC, LOAD, READONLY, DATA
 10 .init         00000017  0000000000000810  0000000000000810  00000810  2**2
                  CONTENTS, ALLOC, LOAD, READONLY, CODE
 11 .plt          00000070  0000000000000830  0000000000000830  00000830  2**4
                  CONTENTS, ALLOC, LOAD, READONLY, CODE
 12 .plt.got      00000008  00000000000008a0  00000000000008a0  000008a0  2**3
                  CONTENTS, ALLOC, LOAD, READONLY, CODE
 13 .text         00000372  00000000000008b0  00000000000008b0  000008b0  2**4
                  CONTENTS, ALLOC, LOAD, READONLY, CODE
 14 .fini         00000009  0000000000000c24  0000000000000c24  00000c24  2**2
                  CONTENTS, ALLOC, LOAD, READONLY, CODE
 15 .rodata       00000020  0000000000000c30  0000000000000c30  00000c30  2**2
                  CONTENTS, ALLOC, LOAD, READONLY, DATA
 16 .eh_frame_hdr 0000004c  0000000000000c50  0000000000000c50  00000c50  2**2
                  CONTENTS, ALLOC, LOAD, READONLY, DATA
 17 .eh_frame     00000148  0000000000000ca0  0000000000000ca0  00000ca0  2**3
                  CONTENTS, ALLOC, LOAD, READONLY, DATA
 18 .init_array   00000010  0000000000201d68  0000000000201d68  00001d68  2**3
                  CONTENTS, ALLOC, LOAD, DATA
 19 .fini_array   00000008  0000000000201d78  0000000000201d78  00001d78  2**3
                  CONTENTS, ALLOC, LOAD, DATA
 20 .dynamic      00000200  0000000000201d80  0000000000201d80  00001d80  2**3
                  CONTENTS, ALLOC, LOAD, DATA
 21 .got          00000080  0000000000201f80  0000000000201f80  00001f80  2**3
                  CONTENTS, ALLOC, LOAD, DATA
 22 .data         00000010  0000000000202000  0000000000202000  00002000  2**3
                  CONTENTS, ALLOC, LOAD, DATA
 23 .bss          00000240  0000000000202020  0000000000202020  00002010  2**5
                  ALLOC
 24 .comment      00000029  0000000000000000  0000000000000000  00002010  2**0
                  CONTENTS, READONLY
SYMBOL TABLE:
0000000000000238 l    d  .interp	0000000000000000              .interp
0000000000000254 l    d  .note.ABI-tag	0000000000000000              .note.ABI-tag
0000000000000274 l    d  .note.gnu.build-id	0000000000000000              .note.gnu.build-id
0000000000000298 l    d  .gnu.hash	0000000000000000              .gnu.hash
00000000000002c0 l    d  .dynsym	0000000000000000              .dynsym
0000000000000440 l    d  .dynstr	0000000000000000              .dynstr
00000000000005d2 l    d  .gnu.version	0000000000000000              .gnu.version
00000000000005f8 l    d  .gnu.version_r	0000000000000000              .gnu.version_r
0000000000000648 l    d  .rela.dyn	0000000000000000              .rela.dyn
0000000000000780 l    d  .rela.plt	0000000000000000              .rela.plt
0000000000000810 l    d  .init	0000000000000000              .init
0000000000000830 l    d  .plt	0000000000000000              .plt
00000000000008a0 l    d  .plt.got	0000000000000000              .plt.got
00000000000008b0 l    d  .text	0000000000000000              .text
0000000000000c24 l    d  .fini	0000000000000000              .fini
0000000000000c30 l    d  .rodata	0000000000000000              .rodata
0000000000000c50 l    d  .eh_frame_hdr	0000000000000000              .eh_frame_hdr
0000000000000ca0 l    d  .eh_frame	0000000000000000              .eh_frame
0000000000201d68 l    d  .init_array	0000000000000000              .init_array
0000000000201d78 l    d  .fini_array	0000000000000000              .fini_array
0000000000201d80 l    d  .dynamic	0000000000000000              .dynamic
0000000000201f80 l    d  .got	0000000000000000              .got
0000000000202000 l    d  .data	0000000000000000              .data
0000000000202020 l    d  .bss	0000000000000000              .bss
0000000000000000 l    d  .comment	0000000000000000              .comment
0000000000000000 l    df *ABS*	0000000000000000              crtstuff.c
00000000000008e0 l     F .text	0000000000000000              deregister_tm_clones
0000000000000920 l     F .text	0000000000000000              register_tm_clones
0000000000000970 l     F .text	0000000000000000              __do_global_dtors_aux
0000000000202258 l     O .bss	0000000000000001              completed.7698
0000000000201d78 l     O .fini_array	0000000000000000              __do_global_dtors_aux_fini_array_entry
00000000000009b0 l     F .text	0000000000000000              frame_dummy
0000000000201d68 l     O .init_array	0000000000000000              __frame_dummy_init_array_entry
0000000000000000 l    df *ABS*	0000000000000000              assignment4_3.cpp
0000000000000c34 l     O .rodata	0000000000000001              _ZStL19piecewise_construct
0000000000202259 l     O .bss	0000000000000001              _ZStL8__ioinit
0000000000000b46 l     F .text	0000000000000049              _Z41__static_initialization_and_destruction_0ii
0000000000000b8f l     F .text	0000000000000015              _GLOBAL__sub_I_main
0000000000000000 l    df *ABS*	0000000000000000              crtstuff.c
0000000000000de4 l     O .eh_frame	0000000000000000              __FRAME_END__
0000000000000000 l    df *ABS*	0000000000000000              
0000000000000c50 l       .eh_frame_hdr	0000000000000000              __GNU_EH_FRAME_HDR
0000000000201d80 l     O .dynamic	0000000000000000              _DYNAMIC
0000000000201d78 l       .init_array	0000000000000000              __init_array_end
0000000000201d68 l       .init_array	0000000000000000              __init_array_start
0000000000201f80 l     O .got	0000000000000000              _GLOBAL_OFFSET_TABLE_
0000000000202010 g       .data	0000000000000000              _edata
0000000000202000  w      .data	0000000000000000              data_start
0000000000000c30 g     O .rodata	0000000000000004              _IO_stdin_used
0000000000000000  w    F *UND*	0000000000000000              __cxa_finalize@@GLIBC_2.2.5
00000000000009ba g     F .text	000000000000018c              main
0000000000000000       F *UND*	0000000000000000              _ZSt4endlIcSt11char_traitsIcEERSt13basic_ostreamIT_T0_ES6_@@GLIBCXX_3.4
0000000000202008 g     O .data	0000000000000000              .hidden __dso_handle
0000000000000000       F *UND*	0000000000000000              _ZNSirsERi@@GLIBCXX_3.4
0000000000000c24 g     F .fini	0000000000000000              _fini
0000000000000000       F *UND*	0000000000000000              __cxa_atexit@@GLIBC_2.2.5
00000000000008b0 g     F .text	000000000000002b              _start
0000000000000000       F *UND*	0000000000000000              _ZStlsISt11char_traitsIcEERSt13basic_ostreamIcT_ES5_PKc@@GLIBCXX_3.4
0000000000000000       F *UND*	0000000000000000              _ZNSolsEPFRSoS_E@@GLIBCXX_3.4
0000000000000000       F *UND*	0000000000000000              __stack_chk_fail@@GLIBC_2.4
0000000000000810 g     F .init	0000000000000000              _init
0000000000202010 g     O .data	0000000000000000              .hidden __TMC_END__
0000000000202020 g     O .bss	0000000000000110              _ZSt4cout@@GLIBCXX_3.4
0000000000202000 g       .data	0000000000000000              __data_start
0000000000202260 g       .bss	0000000000000000              _end
0000000000202010 g       .bss	0000000000000000              __bss_start
0000000000000000       F *UND*	0000000000000000              _ZNSt8ios_base4InitC1Ev@@GLIBCXX_3.4
0000000000000bb0 g     F .text	0000000000000065              __libc_csu_init
0000000000000000  w      *UND*	0000000000000000              _ITM_deregisterTMCloneTable
0000000000000c20 g     F .text	0000000000000002              __libc_csu_fini
0000000000202140 g     O .bss	0000000000000118              _ZSt3cin@@GLIBCXX_3.4
0000000000000000       F *UND*	0000000000000000              __libc_start_main@@GLIBC_2.2.5
0000000000000000  w      *UND*	0000000000000000              __gmon_start__
0000000000000000  w      *UND*	0000000000000000              _ITM_registerTMCloneTable
0000000000000000       F *UND*	0000000000000000              _ZNSt8ios_base4InitD1Ev@@GLIBCXX_3.4


Contents of section .interp:
 0238 2f6c6962 36342f6c 642d6c69 6e75782d  /lib64/ld-linux-
 0248 7838362d 36342e73 6f2e3200           x86-64.so.2.    
Contents of section .note.ABI-tag:
 0254 04000000 10000000 01000000 474e5500  ............GNU.
 0264 00000000 03000000 02000000 00000000  ................
Contents of section .note.gnu.build-id:
 0274 04000000 14000000 03000000 474e5500  ............GNU.
 0284 8b5c645a 88c41772 dc5d4105 3271b888  .\dZ...r.]A.2q..
 0294 4a27004f                             J'.O            
Contents of section .gnu.hash:
 0298 02000000 0e000000 01000000 06000000  ................
 02a8 00001002 01000400 0e000000 00000000  ................
 02b8 14980c43 73960702                    ...Cs...        
Contents of section .dynsym:
 02c0 00000000 00000000 00000000 00000000  ................
 02d0 00000000 00000000 4f010000 22000000  ........O..."...
 02e0 00000000 00000000 00000000 00000000  ................
 02f0 89000000 12000000 00000000 00000000  ................
 0300 00000000 00000000 7e000000 12000000  ........~.......
 0310 00000000 00000000 00000000 00000000  ................
 0320 42010000 12000000 00000000 00000000  B...............
 0330 00000000 00000000 e5000000 12000000  ................
 0340 00000000 00000000 00000000 00000000  ................
 0350 6d000000 12000000 00000000 00000000  m...............
 0360 00000000 00000000 31010000 12000000  ........1.......
 0370 00000000 00000000 00000000 00000000  ................
 0380 c4000000 12000000 00000000 00000000  ................
 0390 00000000 00000000 1f000000 20000000  ............ ...
 03a0 00000000 00000000 00000000 00000000  ................
 03b0 5e010000 12000000 00000000 00000000  ^...............
 03c0 00000000 00000000 10000000 20000000  ............ ...
 03d0 00000000 00000000 00000000 00000000  ................
 03e0 3b000000 20000000 00000000 00000000  ;... ...........
 03f0 00000000 00000000 55000000 12000000  ........U.......
 0400 00000000 00000000 00000000 00000000  ................
 0410 1d010000 11001800 20202000 00000000  ........   .....
 0420 10010000 00000000 dc000000 11001800  ................
 0430 40212000 00000000 18010000 00000000  @! .............
Contents of section .dynstr:
 0440 006c6962 73746463 2b2b2e73 6f2e3600  .libstdc++.so.6.
 0450 5f5f676d 6f6e5f73 74617274 5f5f005f  __gmon_start__._
 0460 49544d5f 64657265 67697374 6572544d  ITM_deregisterTM
 0470 436c6f6e 65546162 6c65005f 49544d5f  CloneTable._ITM_
 0480 72656769 73746572 544d436c 6f6e6554  registerTMCloneT
 0490 61626c65 005f5a4e 53743869 6f735f62  able._ZNSt8ios_b
 04a0 61736534 496e6974 44314576 005f5a4e  ase4InitD1Ev._ZN
 04b0 536f6c73 45504652 536f535f 45005f5a  SolsEPFRSoS_E._Z
 04c0 4e536972 73455269 005f5a53 7434656e  NSirsERi._ZSt4en
 04d0 646c4963 53743131 63686172 5f747261  dlIcSt11char_tra
 04e0 69747349 63454552 53743133 62617369  itsIcEERSt13basi
 04f0 635f6f73 74726561 6d49545f 54305f45  c_ostreamIT_T0_E
 0500 53365f00 5f5a4e53 7438696f 735f6261  S6_._ZNSt8ios_ba
 0510 73653449 6e697443 31457600 5f5a5374  se4InitC1Ev._ZSt
 0520 3363696e 005f5a53 746c7349 53743131  3cin._ZStlsISt11
 0530 63686172 5f747261 69747349 63454552  char_traitsIcEER
 0540 53743133 62617369 635f6f73 74726561  St13basic_ostrea
 0550 6d496354 5f455335 5f504b63 005f5a53  mIcT_ES5_PKc._ZS
 0560 7434636f 7574006c 6962632e 736f2e36  t4cout.libc.so.6
 0570 005f5f73 7461636b 5f63686b 5f666169  .__stack_chk_fai
 0580 6c005f5f 6378615f 61746578 6974005f  l.__cxa_atexit._
 0590 5f637861 5f66696e 616c697a 65005f5f  _cxa_finalize.__
 05a0 6c696263 5f737461 72745f6d 61696e00  libc_start_main.
 05b0 474c4942 4358585f 332e3400 474c4942  GLIBCXX_3.4.GLIB
 05c0 435f322e 3400474c 4942435f 322e322e  C_2.4.GLIBC_2.2.
 05d0 3500                                 5.              
Contents of section .gnu.version:
 05d2 00000200 03000300 02000300 03000400  ................
 05e2 03000000 02000000 00000300 03000300  ................
Contents of section .gnu.version_r:
 05f8 01000100 01000000 10000000 20000000  ............ ...
 0608 74299208 00000300 70010000 00000000  t)......p.......
 0618 01000200 27010000 10000000 00000000  ....'...........
 0628 1469690d 00000400 7c010000 10000000  .ii.....|.......
 0638 751a6909 00000200 86010000 00000000  u.i.............
Contents of section .rela.dyn:
 0648 681d2000 00000000 08000000 00000000  h. .............
 0658 b0090000 00000000 701d2000 00000000  ........p. .....
 0668 08000000 00000000 8f0b0000 00000000  ................
 0678 781d2000 00000000 08000000 00000000  x. .............
 0688 70090000 00000000 08202000 00000000  p........  .....
 0698 08000000 00000000 08202000 00000000  .........  .....
 06a8 c81f2000 00000000 06000000 01000000  .. .............
 06b8 00000000 00000000 d01f2000 00000000  .......... .....
 06c8 06000000 02000000 00000000 00000000  ................
 06d8 d81f2000 00000000 06000000 09000000  .. .............
 06e8 00000000 00000000 e01f2000 00000000  .......... .....
 06f8 06000000 0a000000 00000000 00000000  ................
 0708 e81f2000 00000000 06000000 0b000000  .. .............
 0718 00000000 00000000 f01f2000 00000000  .......... .....
 0728 06000000 0c000000 00000000 00000000  ................
 0738 f81f2000 00000000 06000000 0d000000  .. .............
 0748 00000000 00000000 20202000 00000000  ........   .....
 0758 05000000 0e000000 00000000 00000000  ................
 0768 40212000 00000000 05000000 0f000000  @! .............
 0778 00000000 00000000                    ........        
Contents of section .rela.plt:
 0780 981f2000 00000000 07000000 03000000  .. .............
 0790 00000000 00000000 a01f2000 00000000  .......... .....
 07a0 07000000 04000000 00000000 00000000  ................
 07b0 a81f2000 00000000 07000000 05000000  .. .............
 07c0 00000000 00000000 b01f2000 00000000  .......... .....
 07d0 07000000 06000000 00000000 00000000  ................
 07e0 b81f2000 00000000 07000000 07000000  .. .............
 07f0 00000000 00000000 c01f2000 00000000  .......... .....
 0800 07000000 08000000 00000000 00000000  ................
Contents of section .init:
 0810 4883ec08 488b05cd 17200048 85c07402  H...H.... .H..t.
 0820 ffd04883 c408c3                      ..H....         
Contents of section .plt:
 0830 ff355217 2000ff25 54172000 0f1f4000  .5R. ..%T. ...@.
 0840 ff255217 20006800 000000e9 e0ffffff  .%R. .h.........
 0850 ff254a17 20006801 000000e9 d0ffffff  .%J. .h.........
 0860 ff254217 20006802 000000e9 c0ffffff  .%B. .h.........
 0870 ff253a17 20006803 000000e9 b0ffffff  .%:. .h.........
 0880 ff253217 20006804 000000e9 a0ffffff  .%2. .h.........
 0890 ff252a17 20006805 000000e9 90ffffff  .%*. .h.........
Contents of section .plt.got:
 08a0 ff252217 20006690                    .%". .f.        
Contents of section .text:
 08b0 31ed4989 d15e4889 e24883e4 f050544c  1.I..^H..H...PTL
 08c0 8d055a03 0000488d 0de30200 00488d3d  ..Z...H......H.=
 08d0 e6000000 ff150617 2000f40f 1f440000  ........ ....D..
 08e0 488d3d29 17200055 488d0521 17200048  H.=). .UH..!. .H
 08f0 39f84889 e5741948 8b05da16 20004885  9.H..t.H.... .H.
 0900 c0740d5d ffe0662e 0f1f8400 00000000  .t.]..f.........
 0910 5dc30f1f 4000662e 0f1f8400 00000000  ]...@.f.........
 0920 488d3de9 16200048 8d35e216 20005548  H.=.. .H.5.. .UH
 0930 29fe4889 e548c1fe 034889f0 48c1e83f  ).H..H...H..H..?
 0940 4801c648 d1fe7418 488b05a1 16200048  H..H..t.H.... .H
 0950 85c0740c 5dffe066 0f1f8400 00000000  ..t.]..f........
 0960 5dc30f1f 4000662e 0f1f8400 00000000  ]...@.f.........
 0970 803de118 20000075 2f48833d 47162000  .=.. ..u/H.=G. .
 0980 00554889 e5740c48 8b3d7a16 2000e80d  .UH..t.H.=z. ...
 0990 ffffffe8 48ffffff c605b918 2000015d  ....H....... ..]
 09a0 c30f1f80 00000000 f3c3660f 1f440000  ..........f..D..
 09b0 554889e5 5de966ff ffff5548 89e54883  UH..].f...UH..H.
 09c0 ec206448 8b042528 00000048 8945f831  . dH..%(...H.E.1
 09d0 c0c745f4 01000000 488d3556 02000048  ..E.....H.5V...H
 09e0 8d3d3a16 2000e875 feffff48 89c2488b  .=:. ..u...H..H.
 09f0 05db1520 004889c6 4889d7e8 70feffff  ... .H..H...p...
 0a00 488d45e8 4889c648 8d3d3217 2000e82d  H.E.H..H.=2. ..-
 0a10 feffff8b 45e883e8 018945f4 c745f001  ....E.....E..E..
 0a20 0000008b 45e83945 f07f72c7 45ec0100  ....E.9E..r.E...
 0a30 00008b45 ec3b45f4 7f19488d 35090200  ...E.;E...H.5...
 0a40 00488d3d d8152000 e813feff ff8345ec  .H.=.. .......E.
 0a50 01ebdf83 6df401c7 45ec0100 00008b45  ....m...E......E
 0a60 f001c083 e8013945 ec7f1948 8d35da01  ......9E...H.5..
 0a70 0000488d 3da71520 00e8e2fd ffff8345  ..H.=.. .......E
 0a80 ec01ebda 488d35c3 01000048 8d3d8e15  ....H.5....H.=..
 0a90 2000e8c9 fdffff83 45f001eb 86c745f4   .......E.....E.
 0aa0 01000000 c745f001 0000008b 45e883e8  .....E......E...
 0ab0 013945f0 7f75c745 ec010000 008b45ec  .9E..u.E......E.
 0ac0 3b45f47f 19488d35 7e010000 488d3d4d  ;E...H.5~...H.=M
 0ad0 152000e8 88fdffff 8345ec01 ebdf8345  . .......E.....E
 0ae0 f401c745 ec010000 008b45e8 2b45f001  ...E......E.+E..
 0af0 c083e801 3945ec7f 19488d35 4c010000  ....9E...H.5L...
 0b00 488d3d19 152000e8 54fdffff 8345ec01  H.=.. ..T....E..
 0b10 ebd7488d 35350100 00488d3d 00152000  ..H.55...H.=.. .
 0b20 e83bfdff ff8345f0 01eb80b8 01000000  .;....E.........
 0b30 488b4df8 6448330c 25280000 007405e8  H.M.dH3.%(...t..
 0b40 3cfdffff c9c35548 89e54883 ec10897d  <.....UH..H....}
 0b50 fc8975f8 837dfc01 7532817d f8ffff00  ..u..}..u2.}....
 0b60 00752948 8d3def16 2000e821 fdffff48  .u)H.=.. ..!...H
 0b70 8d159214 2000488d 35dc1620 00488b05  .... .H.5.. .H..
 0b80 74142000 4889c7e8 c4fcffff 90c9c355  t. .H..........U
 0b90 4889e5be ffff0000 bf010000 00e8a4ff  H...............
 0ba0 ffff5dc3 662e0f1f 84000000 00006690  ..].f.........f.
 0bb0 41574156 4989d741 5541544c 8d25a611  AWAVI..AUATL.%..
 0bc0 20005548 8d2dae11 20005341 89fd4989   .UH.-.. .SA..I.
 0bd0 f64c29e5 4883ec08 48c1fd03 e82ffcff  .L).H...H..../..
 0be0 ff4885ed 742031db 0f1f8400 00000000  .H..t 1.........
 0bf0 4c89fa4c 89f64489 ef41ff14 dc4883c3  L..L..D..A...H..
 0c00 014839dd 75ea4883 c4085b5d 415c415d  .H9.u.H...[]A\A]
 0c10 415e415f c390662e 0f1f8400 00000000  A^A_..f.........
 0c20 f3c3                                 ..              
Contents of section .fini:
 0c24 4883ec08 4883c408 c3                 H...H....       
Contents of section .rodata:
 0c30 01000200 00456e74 6572206e 756d6265  .....Enter numbe
 0c40 72206f66 20726f77 73002000 2a000a00  r of rows. .*...
Contents of section .eh_frame_hdr:
 0c50 011b033b 4c000000 08000000 e0fbffff  ...;L...........
 0c60 98000000 50fcffff c0000000 60fcffff  ....P.......`...
 0c70 68000000 6afdffff d8000000 f6feffff  h...j...........
 0c80 f8000000 3fffffff 18010000 60ffffff  ....?.......`...
 0c90 38010000 d0ffffff 80010000           8...........    
Contents of section .eh_frame:
 0ca0 14000000 00000000 017a5200 01781001  .........zR..x..
 0cb0 1b0c0708 90010710 14000000 1c000000  ................
 0cc0 f0fbffff 2b000000 00000000 00000000  ....+...........
 0cd0 14000000 00000000 017a5200 01781001  .........zR..x..
 0ce0 1b0c0708 90010000 24000000 1c000000  ........$.......
 0cf0 40fbffff 70000000 000e1046 0e184a0f  @...p......F..J.
 0d00 0b770880 003f1a3b 2a332422 00000000  .w...?.;*3$"....
 0d10 14000000 44000000 88fbffff 08000000  ....D...........
 0d20 00000000 00000000 1c000000 5c000000  ............\...
 0d30 8afcffff 8c010000 00410e10 8602430d  .........A....C.
 0d40 06038701 0c070800 1c000000 7c000000  ............|...
 0d50 f6fdffff 49000000 00410e10 8602430d  ....I....A....C.
 0d60 0602440c 07080000 1c000000 9c000000  ..D.............
 0d70 1ffeffff 15000000 00410e10 8602430d  .........A....C.
 0d80 06500c07 08000000 44000000 bc000000  .P......D.......
 0d90 20feffff 65000000 00420e10 8f02420e   ...e....B....B.
 0da0 188e0345 0e208d04 420e288c 05480e30  ...E. ..B.(..H.0
 0db0 8606480e 3883074d 0e40720e 38410e30  ..H.8..M.@r.8A.0
 0dc0 410e2842 0e20420e 18420e10 420e0800  A.(B. B..B..B...
 0dd0 10000000 04010000 48feffff 02000000  ........H.......
 0de0 00000000 00000000                    ........        
Contents of section .init_array:
 201d68 b0090000 00000000 8f0b0000 00000000  ................
Contents of section .fini_array:
 201d78 70090000 00000000                    p.......        
Contents of section .dynamic:
 201d80 01000000 00000000 01000000 00000000  ................
 201d90 01000000 00000000 27010000 00000000  ........'.......
 201da0 0c000000 00000000 10080000 00000000  ................
 201db0 0d000000 00000000 240c0000 00000000  ........$.......
 201dc0 19000000 00000000 681d2000 00000000  ........h. .....
 201dd0 1b000000 00000000 10000000 00000000  ................
 201de0 1a000000 00000000 781d2000 00000000  ........x. .....
 201df0 1c000000 00000000 08000000 00000000  ................
 201e00 f5feff6f 00000000 98020000 00000000  ...o............
 201e10 05000000 00000000 40040000 00000000  ........@.......
 201e20 06000000 00000000 c0020000 00000000  ................
 201e30 0a000000 00000000 92010000 00000000  ................
 201e40 0b000000 00000000 18000000 00000000  ................
 201e50 15000000 00000000 00000000 00000000  ................
 201e60 03000000 00000000 801f2000 00000000  .......... .....
 201e70 02000000 00000000 90000000 00000000  ................
 201e80 14000000 00000000 07000000 00000000  ................
 201e90 17000000 00000000 80070000 00000000  ................
 201ea0 07000000 00000000 48060000 00000000  ........H.......
 201eb0 08000000 00000000 38010000 00000000  ........8.......
 201ec0 09000000 00000000 18000000 00000000  ................
 201ed0 1e000000 00000000 08000000 00000000  ................
 201ee0 fbffff6f 00000000 01000008 00000000  ...o............
 201ef0 feffff6f 00000000 f8050000 00000000  ...o............
 201f00 ffffff6f 00000000 02000000 00000000  ...o............
 201f10 f0ffff6f 00000000 d2050000 00000000  ...o............
 201f20 f9ffff6f 00000000 04000000 00000000  ...o............
 201f30 00000000 00000000 00000000 00000000  ................
 201f40 00000000 00000000 00000000 00000000  ................
 201f50 00000000 00000000 00000000 00000000  ................
 201f60 00000000 00000000 00000000 00000000  ................
 201f70 00000000 00000000 00000000 00000000  ................
Contents of section .got:
 201f80 801d2000 00000000 00000000 00000000  .. .............
 201f90 00000000 00000000 46080000 00000000  ........F.......
 201fa0 56080000 00000000 66080000 00000000  V.......f.......
 201fb0 76080000 00000000 86080000 00000000  v...............
 201fc0 96080000 00000000 00000000 00000000  ................
 201fd0 00000000 00000000 00000000 00000000  ................
 201fe0 00000000 00000000 00000000 00000000  ................
 201ff0 00000000 00000000 00000000 00000000  ................
Contents of section .data:
 202000 00000000 00000000 08202000 00000000  .........  .....
Contents of section .comment:
 0000 4743433a 20285562 756e7475 20372e35  GCC: (Ubuntu 7.5
 0010 2e302d33 7562756e 7475317e 31382e30  .0-3ubuntu1~18.0
 0020 34292037 2e352e30 00                 4) 7.5.0.       

Disassembly of section .init:

0000000000000810 <_init>:
 810:	48 83 ec 08          	sub    $0x8,%rsp
 814:	48 8b 05 cd 17 20 00 	mov    0x2017cd(%rip),%rax        # 201fe8 <__gmon_start__>
 81b:	48 85 c0             	test   %rax,%rax
 81e:	74 02                	je     822 <_init+0x12>
 820:	ff d0                	callq  *%rax
 822:	48 83 c4 08          	add    $0x8,%rsp
 826:	c3                   	retq   

Disassembly of section .plt:

0000000000000830 <.plt>:
 830:	ff 35 52 17 20 00    	pushq  0x201752(%rip)        # 201f88 <_GLOBAL_OFFSET_TABLE_+0x8>
 836:	ff 25 54 17 20 00    	jmpq   *0x201754(%rip)        # 201f90 <_GLOBAL_OFFSET_TABLE_+0x10>
 83c:	0f 1f 40 00          	nopl   0x0(%rax)

0000000000000840 <_ZNSirsERi@plt>:
 840:	ff 25 52 17 20 00    	jmpq   *0x201752(%rip)        # 201f98 <_ZNSirsERi@GLIBCXX_3.4>
 846:	68 00 00 00 00       	pushq  $0x0
 84b:	e9 e0 ff ff ff       	jmpq   830 <.plt>

0000000000000850 <__cxa_atexit@plt>:
 850:	ff 25 4a 17 20 00    	jmpq   *0x20174a(%rip)        # 201fa0 <__cxa_atexit@GLIBC_2.2.5>
 856:	68 01 00 00 00       	pushq  $0x1
 85b:	e9 d0 ff ff ff       	jmpq   830 <.plt>

0000000000000860 <_ZStlsISt11char_traitsIcEERSt13basic_ostreamIcT_ES5_PKc@plt>:
 860:	ff 25 42 17 20 00    	jmpq   *0x201742(%rip)        # 201fa8 <_ZStlsISt11char_traitsIcEERSt13basic_ostreamIcT_ES5_PKc@GLIBCXX_3.4>
 866:	68 02 00 00 00       	pushq  $0x2
 86b:	e9 c0 ff ff ff       	jmpq   830 <.plt>

0000000000000870 <_ZNSolsEPFRSoS_E@plt>:
 870:	ff 25 3a 17 20 00    	jmpq   *0x20173a(%rip)        # 201fb0 <_ZNSolsEPFRSoS_E@GLIBCXX_3.4>
 876:	68 03 00 00 00       	pushq  $0x3
 87b:	e9 b0 ff ff ff       	jmpq   830 <.plt>

0000000000000880 <__stack_chk_fail@plt>:
 880:	ff 25 32 17 20 00    	jmpq   *0x201732(%rip)        # 201fb8 <__stack_chk_fail@GLIBC_2.4>
 886:	68 04 00 00 00       	pushq  $0x4
 88b:	e9 a0 ff ff ff       	jmpq   830 <.plt>

0000000000000890 <_ZNSt8ios_base4InitC1Ev@plt>:
 890:	ff 25 2a 17 20 00    	jmpq   *0x20172a(%rip)        # 201fc0 <_ZNSt8ios_base4InitC1Ev@GLIBCXX_3.4>
 896:	68 05 00 00 00       	pushq  $0x5
 89b:	e9 90 ff ff ff       	jmpq   830 <.plt>

Disassembly of section .plt.got:

00000000000008a0 <__cxa_finalize@plt>:
 8a0:	ff 25 22 17 20 00    	jmpq   *0x201722(%rip)        # 201fc8 <__cxa_finalize@GLIBC_2.2.5>
 8a6:	66 90                	xchg   %ax,%ax

Disassembly of section .text:

00000000000008b0 <_start>:
 8b0:	31 ed                	xor    %ebp,%ebp
 8b2:	49 89 d1             	mov    %rdx,%r9
 8b5:	5e                   	pop    %rsi
 8b6:	48 89 e2             	mov    %rsp,%rdx
 8b9:	48 83 e4 f0          	and    $0xfffffffffffffff0,%rsp
 8bd:	50                   	push   %rax
 8be:	54                   	push   %rsp
 8bf:	4c 8d 05 5a 03 00 00 	lea    0x35a(%rip),%r8        # c20 <__libc_csu_fini>
 8c6:	48 8d 0d e3 02 00 00 	lea    0x2e3(%rip),%rcx        # bb0 <__libc_csu_init>
 8cd:	48 8d 3d e6 00 00 00 	lea    0xe6(%rip),%rdi        # 9ba <main>
 8d4:	ff 15 06 17 20 00    	callq  *0x201706(%rip)        # 201fe0 <__libc_start_main@GLIBC_2.2.5>
 8da:	f4                   	hlt    
 8db:	0f 1f 44 00 00       	nopl   0x0(%rax,%rax,1)

00000000000008e0 <deregister_tm_clones>:
 8e0:	48 8d 3d 29 17 20 00 	lea    0x201729(%rip),%rdi        # 202010 <__TMC_END__>
 8e7:	55                   	push   %rbp
 8e8:	48 8d 05 21 17 20 00 	lea    0x201721(%rip),%rax        # 202010 <__TMC_END__>
 8ef:	48 39 f8             	cmp    %rdi,%rax
 8f2:	48 89 e5             	mov    %rsp,%rbp
 8f5:	74 19                	je     910 <deregister_tm_clones+0x30>
 8f7:	48 8b 05 da 16 20 00 	mov    0x2016da(%rip),%rax        # 201fd8 <_ITM_deregisterTMCloneTable>
 8fe:	48 85 c0             	test   %rax,%rax
 901:	74 0d                	je     910 <deregister_tm_clones+0x30>
 903:	5d                   	pop    %rbp
 904:	ff e0                	jmpq   *%rax
 906:	66 2e 0f 1f 84 00 00 	nopw   %cs:0x0(%rax,%rax,1)
 90d:	00 00 00 
 910:	5d                   	pop    %rbp
 911:	c3                   	retq   
 912:	0f 1f 40 00          	nopl   0x0(%rax)
 916:	66 2e 0f 1f 84 00 00 	nopw   %cs:0x0(%rax,%rax,1)
 91d:	00 00 00 

0000000000000920 <register_tm_clones>:
 920:	48 8d 3d e9 16 20 00 	lea    0x2016e9(%rip),%rdi        # 202010 <__TMC_END__>
 927:	48 8d 35 e2 16 20 00 	lea    0x2016e2(%rip),%rsi        # 202010 <__TMC_END__>
 92e:	55                   	push   %rbp
 92f:	48 29 fe             	sub    %rdi,%rsi
 932:	48 89 e5             	mov    %rsp,%rbp
 935:	48 c1 fe 03          	sar    $0x3,%rsi
 939:	48 89 f0             	mov    %rsi,%rax
 93c:	48 c1 e8 3f          	shr    $0x3f,%rax
 940:	48 01 c6             	add    %rax,%rsi
 943:	48 d1 fe             	sar    %rsi
 946:	74 18                	je     960 <register_tm_clones+0x40>
 948:	48 8b 05 a1 16 20 00 	mov    0x2016a1(%rip),%rax        # 201ff0 <_ITM_registerTMCloneTable>
 94f:	48 85 c0             	test   %rax,%rax
 952:	74 0c                	je     960 <register_tm_clones+0x40>
 954:	5d                   	pop    %rbp
 955:	ff e0                	jmpq   *%rax
 957:	66 0f 1f 84 00 00 00 	nopw   0x0(%rax,%rax,1)
 95e:	00 00 
 960:	5d                   	pop    %rbp
 961:	c3                   	retq   
 962:	0f 1f 40 00          	nopl   0x0(%rax)
 966:	66 2e 0f 1f 84 00 00 	nopw   %cs:0x0(%rax,%rax,1)
 96d:	00 00 00 

0000000000000970 <__do_global_dtors_aux>:
 970:	80 3d e1 18 20 00 00 	cmpb   $0x0,0x2018e1(%rip)        # 202258 <completed.7698>
 977:	75 2f                	jne    9a8 <__do_global_dtors_aux+0x38>
 979:	48 83 3d 47 16 20 00 	cmpq   $0x0,0x201647(%rip)        # 201fc8 <__cxa_finalize@GLIBC_2.2.5>
 980:	00 
 981:	55                   	push   %rbp
 982:	48 89 e5             	mov    %rsp,%rbp
 985:	74 0c                	je     993 <__do_global_dtors_aux+0x23>
 987:	48 8b 3d 7a 16 20 00 	mov    0x20167a(%rip),%rdi        # 202008 <__dso_handle>
 98e:	e8 0d ff ff ff       	callq  8a0 <__cxa_finalize@plt>
 993:	e8 48 ff ff ff       	callq  8e0 <deregister_tm_clones>
 998:	c6 05 b9 18 20 00 01 	movb   $0x1,0x2018b9(%rip)        # 202258 <completed.7698>
 99f:	5d                   	pop    %rbp
 9a0:	c3                   	retq   
 9a1:	0f 1f 80 00 00 00 00 	nopl   0x0(%rax)
 9a8:	f3 c3                	repz retq 
 9aa:	66 0f 1f 44 00 00    	nopw   0x0(%rax,%rax,1)

00000000000009b0 <frame_dummy>:
 9b0:	55                   	push   %rbp
 9b1:	48 89 e5             	mov    %rsp,%rbp
 9b4:	5d                   	pop    %rbp
 9b5:	e9 66 ff ff ff       	jmpq   920 <register_tm_clones>

00000000000009ba <main>:
 9ba:	55                   	push   %rbp
 9bb:	48 89 e5             	mov    %rsp,%rbp
 9be:	48 83 ec 20          	sub    $0x20,%rsp
 9c2:	64 48 8b 04 25 28 00 	mov    %fs:0x28,%rax
 9c9:	00 00 
 9cb:	48 89 45 f8          	mov    %rax,-0x8(%rbp)
 9cf:	31 c0                	xor    %eax,%eax
 9d1:	c7 45 f4 01 00 00 00 	movl   $0x1,-0xc(%rbp)
 9d8:	48 8d 35 56 02 00 00 	lea    0x256(%rip),%rsi        # c35 <_ZStL19piecewise_construct+0x1>
 9df:	48 8d 3d 3a 16 20 00 	lea    0x20163a(%rip),%rdi        # 202020 <_ZSt4cout@@GLIBCXX_3.4>
 9e6:	e8 75 fe ff ff       	callq  860 <_ZStlsISt11char_traitsIcEERSt13basic_ostreamIcT_ES5_PKc@plt>
 9eb:	48 89 c2             	mov    %rax,%rdx
 9ee:	48 8b 05 db 15 20 00 	mov    0x2015db(%rip),%rax        # 201fd0 <_ZSt4endlIcSt11char_traitsIcEERSt13basic_ostreamIT_T0_ES6_@GLIBCXX_3.4>
 9f5:	48 89 c6             	mov    %rax,%rsi
 9f8:	48 89 d7             	mov    %rdx,%rdi
 9fb:	e8 70 fe ff ff       	callq  870 <_ZNSolsEPFRSoS_E@plt>
 a00:	48 8d 45 e8          	lea    -0x18(%rbp),%rax
 a04:	48 89 c6             	mov    %rax,%rsi
 a07:	48 8d 3d 32 17 20 00 	lea    0x201732(%rip),%rdi        # 202140 <_ZSt3cin@@GLIBCXX_3.4>
 a0e:	e8 2d fe ff ff       	callq  840 <_ZNSirsERi@plt>
 a13:	8b 45 e8             	mov    -0x18(%rbp),%eax
 a16:	83 e8 01             	sub    $0x1,%eax
 a19:	89 45 f4             	mov    %eax,-0xc(%rbp)
 a1c:	c7 45 f0 01 00 00 00 	movl   $0x1,-0x10(%rbp)
 a23:	8b 45 e8             	mov    -0x18(%rbp),%eax
 a26:	39 45 f0             	cmp    %eax,-0x10(%rbp)
 a29:	7f 72                	jg     a9d <main+0xe3>
 a2b:	c7 45 ec 01 00 00 00 	movl   $0x1,-0x14(%rbp)
 a32:	8b 45 ec             	mov    -0x14(%rbp),%eax
 a35:	3b 45 f4             	cmp    -0xc(%rbp),%eax
 a38:	7f 19                	jg     a53 <main+0x99>
 a3a:	48 8d 35 09 02 00 00 	lea    0x209(%rip),%rsi        # c4a <_ZStL19piecewise_construct+0x16>
 a41:	48 8d 3d d8 15 20 00 	lea    0x2015d8(%rip),%rdi        # 202020 <_ZSt4cout@@GLIBCXX_3.4>
 a48:	e8 13 fe ff ff       	callq  860 <_ZStlsISt11char_traitsIcEERSt13basic_ostreamIcT_ES5_PKc@plt>
 a4d:	83 45 ec 01          	addl   $0x1,-0x14(%rbp)
 a51:	eb df                	jmp    a32 <main+0x78>
 a53:	83 6d f4 01          	subl   $0x1,-0xc(%rbp)
 a57:	c7 45 ec 01 00 00 00 	movl   $0x1,-0x14(%rbp)
 a5e:	8b 45 f0             	mov    -0x10(%rbp),%eax
 a61:	01 c0                	add    %eax,%eax
 a63:	83 e8 01             	sub    $0x1,%eax
 a66:	39 45 ec             	cmp    %eax,-0x14(%rbp)
 a69:	7f 19                	jg     a84 <main+0xca>
 a6b:	48 8d 35 da 01 00 00 	lea    0x1da(%rip),%rsi        # c4c <_ZStL19piecewise_construct+0x18>
 a72:	48 8d 3d a7 15 20 00 	lea    0x2015a7(%rip),%rdi        # 202020 <_ZSt4cout@@GLIBCXX_3.4>
 a79:	e8 e2 fd ff ff       	callq  860 <_ZStlsISt11char_traitsIcEERSt13basic_ostreamIcT_ES5_PKc@plt>
 a7e:	83 45 ec 01          	addl   $0x1,-0x14(%rbp)
 a82:	eb da                	jmp    a5e <main+0xa4>
 a84:	48 8d 35 c3 01 00 00 	lea    0x1c3(%rip),%rsi        # c4e <_ZStL19piecewise_construct+0x1a>
 a8b:	48 8d 3d 8e 15 20 00 	lea    0x20158e(%rip),%rdi        # 202020 <_ZSt4cout@@GLIBCXX_3.4>
 a92:	e8 c9 fd ff ff       	callq  860 <_ZStlsISt11char_traitsIcEERSt13basic_ostreamIcT_ES5_PKc@plt>
 a97:	83 45 f0 01          	addl   $0x1,-0x10(%rbp)
 a9b:	eb 86                	jmp    a23 <main+0x69>
 a9d:	c7 45 f4 01 00 00 00 	movl   $0x1,-0xc(%rbp)
 aa4:	c7 45 f0 01 00 00 00 	movl   $0x1,-0x10(%rbp)
 aab:	8b 45 e8             	mov    -0x18(%rbp),%eax
 aae:	83 e8 01             	sub    $0x1,%eax
 ab1:	39 45 f0             	cmp    %eax,-0x10(%rbp)
 ab4:	7f 75                	jg     b2b <main+0x171>
 ab6:	c7 45 ec 01 00 00 00 	movl   $0x1,-0x14(%rbp)
 abd:	8b 45 ec             	mov    -0x14(%rbp),%eax
 ac0:	3b 45 f4             	cmp    -0xc(%rbp),%eax
 ac3:	7f 19                	jg     ade <main+0x124>
 ac5:	48 8d 35 7e 01 00 00 	lea    0x17e(%rip),%rsi        # c4a <_ZStL19piecewise_construct+0x16>
 acc:	48 8d 3d 4d 15 20 00 	lea    0x20154d(%rip),%rdi        # 202020 <_ZSt4cout@@GLIBCXX_3.4>
 ad3:	e8 88 fd ff ff       	callq  860 <_ZStlsISt11char_traitsIcEERSt13basic_ostreamIcT_ES5_PKc@plt>
 ad8:	83 45 ec 01          	addl   $0x1,-0x14(%rbp)
 adc:	eb df                	jmp    abd <main+0x103>
 ade:	83 45 f4 01          	addl   $0x1,-0xc(%rbp)
 ae2:	c7 45 ec 01 00 00 00 	movl   $0x1,-0x14(%rbp)
 ae9:	8b 45 e8             	mov    -0x18(%rbp),%eax
 aec:	2b 45 f0             	sub    -0x10(%rbp),%eax
 aef:	01 c0                	add    %eax,%eax
 af1:	83 e8 01             	sub    $0x1,%eax
 af4:	39 45 ec             	cmp    %eax,-0x14(%rbp)
 af7:	7f 19                	jg     b12 <main+0x158>
 af9:	48 8d 35 4c 01 00 00 	lea    0x14c(%rip),%rsi        # c4c <_ZStL19piecewise_construct+0x18>
 b00:	48 8d 3d 19 15 20 00 	lea    0x201519(%rip),%rdi        # 202020 <_ZSt4cout@@GLIBCXX_3.4>
 b07:	e8 54 fd ff ff       	callq  860 <_ZStlsISt11char_traitsIcEERSt13basic_ostreamIcT_ES5_PKc@plt>
 b0c:	83 45 ec 01          	addl   $0x1,-0x14(%rbp)
 b10:	eb d7                	jmp    ae9 <main+0x12f>
 b12:	48 8d 35 35 01 00 00 	lea    0x135(%rip),%rsi        # c4e <_ZStL19piecewise_construct+0x1a>
 b19:	48 8d 3d 00 15 20 00 	lea    0x201500(%rip),%rdi        # 202020 <_ZSt4cout@@GLIBCXX_3.4>
 b20:	e8 3b fd ff ff       	callq  860 <_ZStlsISt11char_traitsIcEERSt13basic_ostreamIcT_ES5_PKc@plt>
 b25:	83 45 f0 01          	addl   $0x1,-0x10(%rbp)
 b29:	eb 80                	jmp    aab <main+0xf1>
 b2b:	b8 01 00 00 00       	mov    $0x1,%eax
 b30:	48 8b 4d f8          	mov    -0x8(%rbp),%rcx
 b34:	64 48 33 0c 25 28 00 	xor    %fs:0x28,%rcx
 b3b:	00 00 
 b3d:	74 05                	je     b44 <main+0x18a>
 b3f:	e8 3c fd ff ff       	callq  880 <__stack_chk_fail@plt>
 b44:	c9                   	leaveq 
 b45:	c3                   	retq   

0000000000000b46 <_Z41__static_initialization_and_destruction_0ii>:
 b46:	55                   	push   %rbp
 b47:	48 89 e5             	mov    %rsp,%rbp
 b4a:	48 83 ec 10          	sub    $0x10,%rsp
 b4e:	89 7d fc             	mov    %edi,-0x4(%rbp)
 b51:	89 75 f8             	mov    %esi,-0x8(%rbp)
 b54:	83 7d fc 01          	cmpl   $0x1,-0x4(%rbp)
 b58:	75 32                	jne    b8c <_Z41__static_initialization_and_destruction_0ii+0x46>
 b5a:	81 7d f8 ff ff 00 00 	cmpl   $0xffff,-0x8(%rbp)
 b61:	75 29                	jne    b8c <_Z41__static_initialization_and_destruction_0ii+0x46>
 b63:	48 8d 3d ef 16 20 00 	lea    0x2016ef(%rip),%rdi        # 202259 <_ZStL8__ioinit>
 b6a:	e8 21 fd ff ff       	callq  890 <_ZNSt8ios_base4InitC1Ev@plt>
 b6f:	48 8d 15 92 14 20 00 	lea    0x201492(%rip),%rdx        # 202008 <__dso_handle>
 b76:	48 8d 35 dc 16 20 00 	lea    0x2016dc(%rip),%rsi        # 202259 <_ZStL8__ioinit>
 b7d:	48 8b 05 74 14 20 00 	mov    0x201474(%rip),%rax        # 201ff8 <_ZNSt8ios_base4InitD1Ev@GLIBCXX_3.4>
 b84:	48 89 c7             	mov    %rax,%rdi
 b87:	e8 c4 fc ff ff       	callq  850 <__cxa_atexit@plt>
 b8c:	90                   	nop
 b8d:	c9                   	leaveq 
 b8e:	c3                   	retq   

0000000000000b8f <_GLOBAL__sub_I_main>:
 b8f:	55                   	push   %rbp
 b90:	48 89 e5             	mov    %rsp,%rbp
 b93:	be ff ff 00 00       	mov    $0xffff,%esi
 b98:	bf 01 00 00 00       	mov    $0x1,%edi
 b9d:	e8 a4 ff ff ff       	callq  b46 <_Z41__static_initialization_and_destruction_0ii>
 ba2:	5d                   	pop    %rbp
 ba3:	c3                   	retq   
 ba4:	66 2e 0f 1f 84 00 00 	nopw   %cs:0x0(%rax,%rax,1)
 bab:	00 00 00 
 bae:	66 90                	xchg   %ax,%ax

0000000000000bb0 <__libc_csu_init>:
 bb0:	41 57                	push   %r15
 bb2:	41 56                	push   %r14
 bb4:	49 89 d7             	mov    %rdx,%r15
 bb7:	41 55                	push   %r13
 bb9:	41 54                	push   %r12
 bbb:	4c 8d 25 a6 11 20 00 	lea    0x2011a6(%rip),%r12        # 201d68 <__frame_dummy_init_array_entry>
 bc2:	55                   	push   %rbp
 bc3:	48 8d 2d ae 11 20 00 	lea    0x2011ae(%rip),%rbp        # 201d78 <__init_array_end>
 bca:	53                   	push   %rbx
 bcb:	41 89 fd             	mov    %edi,%r13d
 bce:	49 89 f6             	mov    %rsi,%r14
 bd1:	4c 29 e5             	sub    %r12,%rbp
 bd4:	48 83 ec 08          	sub    $0x8,%rsp
 bd8:	48 c1 fd 03          	sar    $0x3,%rbp
 bdc:	e8 2f fc ff ff       	callq  810 <_init>
 be1:	48 85 ed             	test   %rbp,%rbp
 be4:	74 20                	je     c06 <__libc_csu_init+0x56>
 be6:	31 db                	xor    %ebx,%ebx
 be8:	0f 1f 84 00 00 00 00 	nopl   0x0(%rax,%rax,1)
 bef:	00 
 bf0:	4c 89 fa             	mov    %r15,%rdx
 bf3:	4c 89 f6             	mov    %r14,%rsi
 bf6:	44 89 ef             	mov    %r13d,%edi
 bf9:	41 ff 14 dc          	callq  *(%r12,%rbx,8)
 bfd:	48 83 c3 01          	add    $0x1,%rbx
 c01:	48 39 dd             	cmp    %rbx,%rbp
 c04:	75 ea                	jne    bf0 <__libc_csu_init+0x40>
 c06:	48 83 c4 08          	add    $0x8,%rsp
 c0a:	5b                   	pop    %rbx
 c0b:	5d                   	pop    %rbp
 c0c:	41 5c                	pop    %r12
 c0e:	41 5d                	pop    %r13
 c10:	41 5e                	pop    %r14
 c12:	41 5f                	pop    %r15
 c14:	c3                   	retq   
 c15:	90                   	nop
 c16:	66 2e 0f 1f 84 00 00 	nopw   %cs:0x0(%rax,%rax,1)
 c1d:	00 00 00 

0000000000000c20 <__libc_csu_fini>:
 c20:	f3 c3                	repz retq 

Disassembly of section .fini:

0000000000000c24 <_fini>:
 c24:	48 83 ec 08          	sub    $0x8,%rsp
 c28:	48 83 c4 08          	add    $0x8,%rsp
 c2c:	c3                   	retq   
