
assignment6_1:     file format elf64-x86-64
assignment6_1
architecture: i386:x86-64, flags 0x00000150:
HAS_SYMS, DYNAMIC, D_PAGED
start address 0x00000000000008f0

Program Header:
    PHDR off    0x0000000000000040 vaddr 0x0000000000000040 paddr 0x0000000000000040 align 2**3
         filesz 0x00000000000001f8 memsz 0x00000000000001f8 flags r--
  INTERP off    0x0000000000000238 vaddr 0x0000000000000238 paddr 0x0000000000000238 align 2**0
         filesz 0x000000000000001c memsz 0x000000000000001c flags r--
    LOAD off    0x0000000000000000 vaddr 0x0000000000000000 paddr 0x0000000000000000 align 2**21
         filesz 0x0000000000001058 memsz 0x0000000000001058 flags r-x
    LOAD off    0x0000000000001d60 vaddr 0x0000000000201d60 paddr 0x0000000000201d60 align 2**21
         filesz 0x00000000000002b0 memsz 0x0000000000000500 flags rw-
 DYNAMIC off    0x0000000000001d78 vaddr 0x0000000000201d78 paddr 0x0000000000201d78 align 2**3
         filesz 0x0000000000000200 memsz 0x0000000000000200 flags rw-
    NOTE off    0x0000000000000254 vaddr 0x0000000000000254 paddr 0x0000000000000254 align 2**2
         filesz 0x0000000000000044 memsz 0x0000000000000044 flags r--
EH_FRAME off    0x0000000000000e9c vaddr 0x0000000000000e9c paddr 0x0000000000000e9c align 2**2
         filesz 0x0000000000000054 memsz 0x0000000000000054 flags r--
   STACK off    0x0000000000000000 vaddr 0x0000000000000000 paddr 0x0000000000000000 align 2**4
         filesz 0x0000000000000000 memsz 0x0000000000000000 flags rw-
   RELRO off    0x0000000000001d60 vaddr 0x0000000000201d60 paddr 0x0000000000201d60 align 2**0
         filesz 0x00000000000002a0 memsz 0x00000000000002a0 flags r--

Dynamic Section:
  NEEDED               libstdc++.so.6
  NEEDED               libc.so.6
  INIT                 0x0000000000000848
  FINI                 0x0000000000000df4
  INIT_ARRAY           0x0000000000201d60
  INIT_ARRAYSZ         0x0000000000000010
  FINI_ARRAY           0x0000000000201d70
  FINI_ARRAYSZ         0x0000000000000008
  GNU_HASH             0x0000000000000298
  STRTAB               0x0000000000000458
  SYMTAB               0x00000000000002c0
  STRSZ                0x000000000000019c
  SYMENT               0x0000000000000018
  DEBUG                0x0000000000000000
  PLTGOT               0x0000000000201f78
  PLTRELSZ             0x00000000000000a8
  PLTREL               0x0000000000000007
  JMPREL               0x00000000000007a0
  RELA                 0x0000000000000668
  RELASZ               0x0000000000000138
  RELAENT              0x0000000000000018
  FLAGS                0x0000000000000008
  FLAGS_1              0x0000000008000001
  VERNEED              0x0000000000000618
  VERNEEDNUM           0x0000000000000002
  VERSYM               0x00000000000005f4
  RELACOUNT            0x0000000000000004

Version References:
  required from libstdc++.so.6:
    0x08922974 0x00 03 GLIBCXX_3.4
  required from libc.so.6:
    0x0d696914 0x00 04 GLIBC_2.4
    0x09691a75 0x00 02 GLIBC_2.2.5

Sections:
Idx Name          Size      VMA               LMA               File off  Algn
  0 .interp       0000001c  0000000000000238  0000000000000238  00000238  2**0
                  CONTENTS, ALLOC, LOAD, READONLY, DATA
  1 .note.ABI-tag 00000020  0000000000000254  0000000000000254  00000254  2**2
                  CONTENTS, ALLOC, LOAD, READONLY, DATA
  2 .note.gnu.build-id 00000024  0000000000000274  0000000000000274  00000274  2**2
                  CONTENTS, ALLOC, LOAD, READONLY, DATA
  3 .gnu.hash     00000028  0000000000000298  0000000000000298  00000298  2**3
                  CONTENTS, ALLOC, LOAD, READONLY, DATA
  4 .dynsym       00000198  00000000000002c0  00000000000002c0  000002c0  2**3
                  CONTENTS, ALLOC, LOAD, READONLY, DATA
  5 .dynstr       0000019c  0000000000000458  0000000000000458  00000458  2**0
                  CONTENTS, ALLOC, LOAD, READONLY, DATA
  6 .gnu.version  00000022  00000000000005f4  00000000000005f4  000005f4  2**1
                  CONTENTS, ALLOC, LOAD, READONLY, DATA
  7 .gnu.version_r 00000050  0000000000000618  0000000000000618  00000618  2**3
                  CONTENTS, ALLOC, LOAD, READONLY, DATA
  8 .rela.dyn     00000138  0000000000000668  0000000000000668  00000668  2**3
                  CONTENTS, ALLOC, LOAD, READONLY, DATA
  9 .rela.plt     000000a8  00000000000007a0  00000000000007a0  000007a0  2**3
                  CONTENTS, ALLOC, LOAD, READONLY, DATA
 10 .init         00000017  0000000000000848  0000000000000848  00000848  2**2
                  CONTENTS, ALLOC, LOAD, READONLY, CODE
 11 .plt          00000080  0000000000000860  0000000000000860  00000860  2**4
                  CONTENTS, ALLOC, LOAD, READONLY, CODE
 12 .plt.got      00000008  00000000000008e0  00000000000008e0  000008e0  2**3
                  CONTENTS, ALLOC, LOAD, READONLY, CODE
 13 .text         00000502  00000000000008f0  00000000000008f0  000008f0  2**4
                  CONTENTS, ALLOC, LOAD, READONLY, CODE
 14 .fini         00000009  0000000000000df4  0000000000000df4  00000df4  2**2
                  CONTENTS, ALLOC, LOAD, READONLY, CODE
 15 .rodata       0000009a  0000000000000e00  0000000000000e00  00000e00  2**2
                  CONTENTS, ALLOC, LOAD, READONLY, DATA
 16 .eh_frame_hdr 00000054  0000000000000e9c  0000000000000e9c  00000e9c  2**2
                  CONTENTS, ALLOC, LOAD, READONLY, DATA
 17 .eh_frame     00000168  0000000000000ef0  0000000000000ef0  00000ef0  2**3
                  CONTENTS, ALLOC, LOAD, READONLY, DATA
 18 .init_array   00000010  0000000000201d60  0000000000201d60  00001d60  2**3
                  CONTENTS, ALLOC, LOAD, DATA
 19 .fini_array   00000008  0000000000201d70  0000000000201d70  00001d70  2**3
                  CONTENTS, ALLOC, LOAD, DATA
 20 .dynamic      00000200  0000000000201d78  0000000000201d78  00001d78  2**3
                  CONTENTS, ALLOC, LOAD, DATA
 21 .got          00000088  0000000000201f78  0000000000201f78  00001f78  2**3
                  CONTENTS, ALLOC, LOAD, DATA
 22 .data         00000010  0000000000202000  0000000000202000  00002000  2**3
                  CONTENTS, ALLOC, LOAD, DATA
 23 .bss          00000240  0000000000202020  0000000000202020  00002010  2**5
                  ALLOC
 24 .comment      00000029  0000000000000000  0000000000000000  00002010  2**0
                  CONTENTS, READONLY
SYMBOL TABLE:
0000000000000238 l    d  .interp	0000000000000000              .interp
0000000000000254 l    d  .note.ABI-tag	0000000000000000              .note.ABI-tag
0000000000000274 l    d  .note.gnu.build-id	0000000000000000              .note.gnu.build-id
0000000000000298 l    d  .gnu.hash	0000000000000000              .gnu.hash
00000000000002c0 l    d  .dynsym	0000000000000000              .dynsym
0000000000000458 l    d  .dynstr	0000000000000000              .dynstr
00000000000005f4 l    d  .gnu.version	0000000000000000              .gnu.version
0000000000000618 l    d  .gnu.version_r	0000000000000000              .gnu.version_r
0000000000000668 l    d  .rela.dyn	0000000000000000              .rela.dyn
00000000000007a0 l    d  .rela.plt	0000000000000000              .rela.plt
0000000000000848 l    d  .init	0000000000000000              .init
0000000000000860 l    d  .plt	0000000000000000              .plt
00000000000008e0 l    d  .plt.got	0000000000000000              .plt.got
00000000000008f0 l    d  .text	0000000000000000              .text
0000000000000df4 l    d  .fini	0000000000000000              .fini
0000000000000e00 l    d  .rodata	0000000000000000              .rodata
0000000000000e9c l    d  .eh_frame_hdr	0000000000000000              .eh_frame_hdr
0000000000000ef0 l    d  .eh_frame	0000000000000000              .eh_frame
0000000000201d60 l    d  .init_array	0000000000000000              .init_array
0000000000201d70 l    d  .fini_array	0000000000000000              .fini_array
0000000000201d78 l    d  .dynamic	0000000000000000              .dynamic
0000000000201f78 l    d  .got	0000000000000000              .got
0000000000202000 l    d  .data	0000000000000000              .data
0000000000202020 l    d  .bss	0000000000000000              .bss
0000000000000000 l    d  .comment	0000000000000000              .comment
0000000000000000 l    df *ABS*	0000000000000000              crtstuff.c
0000000000000920 l     F .text	0000000000000000              deregister_tm_clones
0000000000000960 l     F .text	0000000000000000              register_tm_clones
00000000000009b0 l     F .text	0000000000000000              __do_global_dtors_aux
0000000000202258 l     O .bss	0000000000000001              completed.7698
0000000000201d70 l     O .fini_array	0000000000000000              __do_global_dtors_aux_fini_array_entry
00000000000009f0 l     F .text	0000000000000000              frame_dummy
0000000000201d60 l     O .init_array	0000000000000000              __frame_dummy_init_array_entry
0000000000000000 l    df *ABS*	0000000000000000              assignment6_1.cpp
0000000000000e04 l     O .rodata	0000000000000001              _ZStL19piecewise_construct
0000000000202259 l     O .bss	0000000000000001              _ZStL8__ioinit
0000000000000d1d l     F .text	0000000000000049              _Z41__static_initialization_and_destruction_0ii
0000000000000d66 l     F .text	0000000000000015              _GLOBAL__sub_I__Z11DisplayMenuv
0000000000000000 l    df *ABS*	0000000000000000              crtstuff.c
0000000000001054 l     O .eh_frame	0000000000000000              __FRAME_END__
0000000000000000 l    df *ABS*	0000000000000000              
0000000000000e9c l       .eh_frame_hdr	0000000000000000              __GNU_EH_FRAME_HDR
0000000000201d78 l     O .dynamic	0000000000000000              _DYNAMIC
0000000000201d70 l       .init_array	0000000000000000              __init_array_end
0000000000201d60 l       .init_array	0000000000000000              __init_array_start
0000000000201f78 l     O .got	0000000000000000              _GLOBAL_OFFSET_TABLE_
0000000000202010 g       .data	0000000000000000              _edata
0000000000202000  w      .data	0000000000000000              data_start
0000000000000e00 g     O .rodata	0000000000000004              _IO_stdin_used
0000000000000000  w    F *UND*	0000000000000000              __cxa_finalize@@GLIBC_2.2.5
0000000000000a73 g     F .text	00000000000002aa              main
0000000000000000       F *UND*	0000000000000000              _ZSt4endlIcSt11char_traitsIcEERSt13basic_ostreamIT_T0_ES6_@@GLIBCXX_3.4
0000000000202008 g     O .data	0000000000000000              .hidden __dso_handle
0000000000000000       F *UND*	0000000000000000              _ZNSirsERi@@GLIBCXX_3.4
0000000000000df4 g     F .fini	0000000000000000              _fini
0000000000000000       F *UND*	0000000000000000              __cxa_atexit@@GLIBC_2.2.5
00000000000008f0 g     F .text	000000000000002b              _start
0000000000000000       F *UND*	0000000000000000              _ZStlsISt11char_traitsIcEERSt13basic_ostreamIcT_ES5_PKc@@GLIBCXX_3.4
0000000000000000       F *UND*	0000000000000000              _ZNSolsEPFRSoS_E@@GLIBCXX_3.4
0000000000000000       F *UND*	0000000000000000              __stack_chk_fail@@GLIBC_2.4
0000000000000848 g     F .init	0000000000000000              _init
00000000000009fa g     F .text	0000000000000079              _Z11DisplayMenuv
0000000000202010 g     O .data	0000000000000000              .hidden __TMC_END__
0000000000202020 g     O .bss	0000000000000110              _ZSt4cout@@GLIBCXX_3.4
0000000000202000 g       .data	0000000000000000              __data_start
0000000000202260 g       .bss	0000000000000000              _end
0000000000202010 g       .bss	0000000000000000              __bss_start
0000000000000000       F *UND*	0000000000000000              _ZNSt8ios_base4InitC1Ev@@GLIBCXX_3.4
0000000000000d80 g     F .text	0000000000000065              __libc_csu_init
0000000000000000       F *UND*	0000000000000000              _ZNSolsEi@@GLIBCXX_3.4
0000000000000000  w      *UND*	0000000000000000              _ITM_deregisterTMCloneTable
0000000000000df0 g     F .text	0000000000000002              __libc_csu_fini
0000000000202140 g     O .bss	0000000000000118              _ZSt3cin@@GLIBCXX_3.4
0000000000000000       F *UND*	0000000000000000              __libc_start_main@@GLIBC_2.2.5
0000000000000000  w      *UND*	0000000000000000              __gmon_start__
0000000000000000  w      *UND*	0000000000000000              _ITM_registerTMCloneTable
0000000000000000       F *UND*	0000000000000000              _ZNSt8ios_base4InitD1Ev@@GLIBCXX_3.4


Contents of section .interp:
 0238 2f6c6962 36342f6c 642d6c69 6e75782d  /lib64/ld-linux-
 0248 7838362d 36342e73 6f2e3200           x86-64.so.2.    
Contents of section .note.ABI-tag:
 0254 04000000 10000000 01000000 474e5500  ............GNU.
 0264 00000000 03000000 02000000 00000000  ................
Contents of section .note.gnu.build-id:
 0274 04000000 14000000 03000000 474e5500  ............GNU.
 0284 221f54e3 3cee2cff bad47031 0f19d105  ".T.<.,...p1....
 0294 1ba5520a                             ..R.            
Contents of section .gnu.hash:
 0298 02000000 0f000000 01000000 06000000  ................
 02a8 00001002 01000400 0f000000 00000000  ................
 02b8 14980c43 73960702                    ...Cs...        
Contents of section .dynsym:
 02c0 00000000 00000000 00000000 00000000  ................
 02d0 00000000 00000000 59010000 22000000  ........Y..."...
 02e0 00000000 00000000 00000000 00000000  ................
 02f0 89000000 12000000 00000000 00000000  ................
 0300 00000000 00000000 7e000000 12000000  ........~.......
 0310 00000000 00000000 00000000 00000000  ................
 0320 4c010000 12000000 00000000 00000000  L...............
 0330 00000000 00000000 e5000000 12000000  ................
 0340 00000000 00000000 00000000 00000000  ................
 0350 6d000000 12000000 00000000 00000000  m...............
 0360 00000000 00000000 3b010000 12000000  ........;.......
 0370 00000000 00000000 00000000 00000000  ................
 0380 c4000000 12000000 00000000 00000000  ................
 0390 00000000 00000000 27010000 12000000  ........'.......
 03a0 00000000 00000000 00000000 00000000  ................
 03b0 1f000000 20000000 00000000 00000000  .... ...........
 03c0 00000000 00000000 68010000 12000000  ........h.......
 03d0 00000000 00000000 00000000 00000000  ................
 03e0 10000000 20000000 00000000 00000000  .... ...........
 03f0 00000000 00000000 3b000000 20000000  ........;... ...
 0400 00000000 00000000 00000000 00000000  ................
 0410 55000000 12000000 00000000 00000000  U...............
 0420 00000000 00000000 1d010000 11001800  ................
 0430 20202000 00000000 10010000 00000000     .............
 0440 dc000000 11001800 40212000 00000000  ........@! .....
 0450 18010000 00000000                    ........        
Contents of section .dynstr:
 0458 006c6962 73746463 2b2b2e73 6f2e3600  .libstdc++.so.6.
 0468 5f5f676d 6f6e5f73 74617274 5f5f005f  __gmon_start__._
 0478 49544d5f 64657265 67697374 6572544d  ITM_deregisterTM
 0488 436c6f6e 65546162 6c65005f 49544d5f  CloneTable._ITM_
 0498 72656769 73746572 544d436c 6f6e6554  registerTMCloneT
 04a8 61626c65 005f5a4e 53743869 6f735f62  able._ZNSt8ios_b
 04b8 61736534 496e6974 44314576 005f5a4e  ase4InitD1Ev._ZN
 04c8 536f6c73 45504652 536f535f 45005f5a  SolsEPFRSoS_E._Z
 04d8 4e536972 73455269 005f5a53 7434656e  NSirsERi._ZSt4en
 04e8 646c4963 53743131 63686172 5f747261  dlIcSt11char_tra
 04f8 69747349 63454552 53743133 62617369  itsIcEERSt13basi
 0508 635f6f73 74726561 6d49545f 54305f45  c_ostreamIT_T0_E
 0518 53365f00 5f5a4e53 7438696f 735f6261  S6_._ZNSt8ios_ba
 0528 73653449 6e697443 31457600 5f5a5374  se4InitC1Ev._ZSt
 0538 3363696e 005f5a53 746c7349 53743131  3cin._ZStlsISt11
 0548 63686172 5f747261 69747349 63454552  char_traitsIcEER
 0558 53743133 62617369 635f6f73 74726561  St13basic_ostrea
 0568 6d496354 5f455335 5f504b63 005f5a53  mIcT_ES5_PKc._ZS
 0578 7434636f 7574005f 5a4e536f 6c734569  t4cout._ZNSolsEi
 0588 006c6962 632e736f 2e36005f 5f737461  .libc.so.6.__sta
 0598 636b5f63 686b5f66 61696c00 5f5f6378  ck_chk_fail.__cx
 05a8 615f6174 65786974 005f5f63 78615f66  a_atexit.__cxa_f
 05b8 696e616c 697a6500 5f5f6c69 62635f73  inalize.__libc_s
 05c8 74617274 5f6d6169 6e00474c 49424358  tart_main.GLIBCX
 05d8 585f332e 3400474c 4942435f 322e3400  X_3.4.GLIBC_2.4.
 05e8 474c4942 435f322e 322e3500           GLIBC_2.2.5.    
Contents of section .gnu.version:
 05f4 00000200 03000300 02000300 03000400  ................
 0604 03000300 00000200 00000000 03000300  ................
 0614 0300                                 ..              
Contents of section .gnu.version_r:
 0618 01000100 01000000 10000000 20000000  ............ ...
 0628 74299208 00000300 7a010000 00000000  t)......z.......
 0638 01000200 31010000 10000000 00000000  ....1...........
 0648 1469690d 00000400 86010000 10000000  .ii.............
 0658 751a6909 00000200 90010000 00000000  u.i.............
Contents of section .rela.dyn:
 0668 601d2000 00000000 08000000 00000000  `. .............
 0678 f0090000 00000000 681d2000 00000000  ........h. .....
 0688 08000000 00000000 660d0000 00000000  ........f.......
 0698 701d2000 00000000 08000000 00000000  p. .............
 06a8 b0090000 00000000 08202000 00000000  .........  .....
 06b8 08000000 00000000 08202000 00000000  .........  .....
 06c8 c81f2000 00000000 06000000 01000000  .. .............
 06d8 00000000 00000000 d01f2000 00000000  .......... .....
 06e8 06000000 02000000 00000000 00000000  ................
 06f8 d81f2000 00000000 06000000 0a000000  .. .............
 0708 00000000 00000000 e01f2000 00000000  .......... .....
 0718 06000000 0b000000 00000000 00000000  ................
 0728 e81f2000 00000000 06000000 0c000000  .. .............
 0738 00000000 00000000 f01f2000 00000000  .......... .....
 0748 06000000 0d000000 00000000 00000000  ................
 0758 f81f2000 00000000 06000000 0e000000  .. .............
 0768 00000000 00000000 20202000 00000000  ........   .....
 0778 05000000 0f000000 00000000 00000000  ................
 0788 40212000 00000000 05000000 10000000  @! .............
 0798 00000000 00000000                    ........        
Contents of section .rela.plt:
 07a0 901f2000 00000000 07000000 03000000  .. .............
 07b0 00000000 00000000 981f2000 00000000  .......... .....
 07c0 07000000 04000000 00000000 00000000  ................
 07d0 a01f2000 00000000 07000000 05000000  .. .............
 07e0 00000000 00000000 a81f2000 00000000  .......... .....
 07f0 07000000 06000000 00000000 00000000  ................
 0800 b01f2000 00000000 07000000 07000000  .. .............
 0810 00000000 00000000 b81f2000 00000000  .......... .....
 0820 07000000 08000000 00000000 00000000  ................
 0830 c01f2000 00000000 07000000 09000000  .. .............
 0840 00000000 00000000                    ........        
Contents of section .init:
 0848 4883ec08 488b0595 17200048 85c07402  H...H.... .H..t.
 0858 ffd04883 c408c3                      ..H....         
Contents of section .plt:
 0860 ff351a17 2000ff25 1c172000 0f1f4000  .5.. ..%.. ...@.
 0870 ff251a17 20006800 000000e9 e0ffffff  .%.. .h.........
 0880 ff251217 20006801 000000e9 d0ffffff  .%.. .h.........
 0890 ff250a17 20006802 000000e9 c0ffffff  .%.. .h.........
 08a0 ff250217 20006803 000000e9 b0ffffff  .%.. .h.........
 08b0 ff25fa16 20006804 000000e9 a0ffffff  .%.. .h.........
 08c0 ff25f216 20006805 000000e9 90ffffff  .%.. .h.........
 08d0 ff25ea16 20006806 000000e9 80ffffff  .%.. .h.........
Contents of section .plt.got:
 08e0 ff25e216 20006690                    .%.. .f.        
Contents of section .text:
 08f0 31ed4989 d15e4889 e24883e4 f050544c  1.I..^H..H...PTL
 0900 8d05ea04 0000488d 0d730400 00488d3d  ......H..s...H.=
 0910 5f010000 ff15c616 2000f40f 1f440000  _....... ....D..
 0920 488d3de9 16200055 488d05e1 16200048  H.=.. .UH.... .H
 0930 39f84889 e5741948 8b059a16 20004885  9.H..t.H.... .H.
 0940 c0740d5d ffe0662e 0f1f8400 00000000  .t.]..f.........
 0950 5dc30f1f 4000662e 0f1f8400 00000000  ]...@.f.........
 0960 488d3da9 16200048 8d35a216 20005548  H.=.. .H.5.. .UH
 0970 29fe4889 e548c1fe 034889f0 48c1e83f  ).H..H...H..H..?
 0980 4801c648 d1fe7418 488b0561 16200048  H..H..t.H..a. .H
 0990 85c0740c 5dffe066 0f1f8400 00000000  ..t.]..f........
 09a0 5dc30f1f 4000662e 0f1f8400 00000000  ]...@.f.........
 09b0 803da118 20000075 2f48833d 07162000  .=.. ..u/H.=.. .
 09c0 00554889 e5740c48 8b3d3a16 2000e80d  .UH..t.H.=:. ...
 09d0 ffffffe8 48ffffff c6057918 2000015d  ....H.....y. ..]
 09e0 c30f1f80 00000000 f3c3660f 1f440000  ..........f..D..
 09f0 554889e5 5de966ff ffff5548 89e5488d  UH..].f...UH..H.
 0a00 35000400 00488d3d 14162000 e87ffeff  5....H.=.. .....
 0a10 ff488d35 fe030000 488d3d01 162000e8  .H.5....H.=.. ..
 0a20 6cfeffff 488d35f5 03000048 8d3dee15  l...H.5....H.=..
 0a30 2000e859 feffff48 8d35f103 0000488d   ..Y...H.5....H.
 0a40 3ddb1520 00e846fe ffff488d 35ed0300  =.. ..F...H.5...
 0a50 00488d3d c8152000 e833feff ff488d35  .H.=.. ..3...H.5
 0a60 a1030000 488d3db5 152000e8 20feffff  ....H.=.. .. ...
 0a70 905dc355 4889e548 83ec2064 488b0425  .].UH..H.. dH..%
 0a80 28000000 488945f8 31c0c745 ec000000  (...H.E.1..E....
 0a90 008b45ec 83f8050f 84650200 00488d35  ..E......e...H.5
 0aa0 a5030000 488d3d75 152000e8 e0fdffff  ....H.=u. ......
 0ab0 488d35a4 03000048 8d3d6215 2000e8cd  H.5....H.=b. ...
 0ac0 fdffff48 8d359c03 0000488d 3d4f1520  ...H.5....H.=O. 
 0ad0 00e8bafd ffff488d 35990300 00488d3d  ......H.5....H.=
 0ae0 3c152000 e8a7fdff ff488d35 96030000  <. ......H.5....
 0af0 488d3d29 152000e8 94fdffff 488d3546  H.=). ......H.5F
 0b00 03000048 8d3d1615 2000e881 fdffff48  ...H.=.. ......H
 0b10 8d45ec48 89c6488d 3d231620 00e84efd  .E.H..H.=#. ..N.
 0b20 ffff8b45 ec83f801 0f859500 0000488d  ...E..........H.
 0b30 45f04889 c6488d3d 04162000 e82ffdff  E.H..H.=.. ../..
 0b40 ff4889c2 488d45f4 4889c648 89d7e81d  .H..H.E.H..H....
 0b50 fdffff8b 45f089c6 488d3dc1 142000e8  ....E...H.=.. ..
 0b60 6cfdffff 488d3527 03000048 89c7e81d  l...H.5'...H....
 0b70 fdffff48 89c28b45 f489c648 89d7e84d  ...H...E...H...M
 0b80 fdffff48 8d350c03 00004889 c7e8fefc  ...H.5....H.....
 0b90 ffff4889 c18b55f0 8b45f429 c289d089  ..H...U..E.)....
 0ba0 c64889cf e827fdff ff4889c2 488b051d  .H...'...H..H...
 0bb0 14200048 89c64889 d7e8e2fc ffffe9ce  . .H..H.........
 0bc0 feffff8b 45ec83f8 020f8593 00000048  ....E..........H
 0bd0 8d45f048 89c6488d 3d631520 00e88efc  .E.H..H.=c. ....
 0be0 ffff4889 c2488d45 f44889c6 4889d7e8  ..H..H.E.H..H...
 0bf0 7cfcffff 8b45f089 c6488d3d 20142000  |....E...H.= . .
 0c00 e8cbfcff ff488d35 86020000 4889c7e8  .....H.5....H...
 0c10 7cfcffff 4889c28b 45f489c6 4889d7e8  |...H...E...H...
 0c20 acfcffff 488d356b 02000048 89c7e85d  ....H.5k...H...]
 0c30 fcffff48 89c18b55 f08b45f4 01d089c6  ...H...U..E.....
 0c40 4889cfe8 88fcffff 4889c248 8b057e13  H.......H..H..~.
 0c50 20004889 c64889d7 e843fcff ffe92ffe   .H..H...C..../.
 0c60 ffff8b45 ec83f803 0f8523fe ffff488d  ...E......#...H.
 0c70 45f04889 c6488d3d c4142000 e8effbff  E.H..H.=.. .....
 0c80 ff4889c2 488d45f4 4889c648 89d7e8dd  .H..H.E.H..H....
 0c90 fbffff8b 45f089c6 488d3d81 132000e8  ....E...H.=.. ..
 0ca0 2cfcffff 488d35e7 01000048 89c7e8dd  ,...H.5....H....
 0cb0 fbffff48 89c28b45 f489c648 89d7e80d  ...H...E...H....
 0cc0 fcffff48 8d35cc01 00004889 c7e8befb  ...H.5....H.....
 0cd0 ffff4889 c18b45f0 8b75f499 f7fe89c6  ..H...E..u......
 0ce0 4889cfe8 e8fbffff 4889c248 8b05de12  H.......H..H....
 0cf0 20004889 c64889d7 e8a3fbff ffe98ffd   .H..H..........
 0d00 ffffb800 00000048 8b4df864 48330c25  .......H.M.dH3.%
 0d10 28000000 7405e895 fbffffc9 c3554889  (...t........UH.
 0d20 e54883ec 10897dfc 8975f883 7dfc0175  .H....}..u..}..u
 0d30 32817df8 ffff0000 7529488d 3d181520  2.}.....u)H.=.. 
 0d40 00e87afb ffff488d 15bb1220 00488d35  ..z...H.... .H.5
 0d50 05152000 488b059d 12200048 89c7e81d  .. .H.... .H....
 0d60 fbffff90 c9c35548 89e5beff ff0000bf  ......UH........
 0d70 01000000 e8a4ffff ff5dc30f 1f440000  .........]...D..
 0d80 41574156 4989d741 5541544c 8d25ce0f  AWAVI..AUATL.%..
 0d90 20005548 8d2dd60f 20005341 89fd4989   .UH.-.. .SA..I.
 0da0 f64c29e5 4883ec08 48c1fd03 e897faff  .L).H...H.......
 0db0 ff4885ed 742031db 0f1f8400 00000000  .H..t 1.........
 0dc0 4c89fa4c 89f64489 ef41ff14 dc4883c3  L..L..D..A...H..
 0dd0 014839dd 75ea4883 c4085b5d 415c415d  .H9.u.H...[]A\A]
 0de0 415e415f c390662e 0f1f8400 00000000  A^A_..f.........
 0df0 f3c3                                 ..              
Contents of section .fini:
 0df4 4883ec08 4883c408 c3                 H...H....       
Contents of section .rodata:
 0e00 01000200 002d2d2d 2d2d2d2d 2d2d2d2d  .....-----------
 0e10 2d2d2d2d 2d002d20 31294164 64202d00  -----.- 1)Add -.
 0e20 2d203229 53756274 72616374 202d002d  - 2)Subtract -.-
 0e30 2033294d 756c7469 706c7920 2d002d20   3)Multiply -.- 
 0e40 34294578 6974202d 002d2d2d 2d2d2d2d  4)Exit -.-------
 0e50 2d2d2d2d 2d2d2d2d 2d0a002d 20312941  ---------..- 1)A
 0e60 6464202d 0a002d20 32295375 62747261  dd -..- 2)Subtra
 0e70 6374202d 0a002d20 33294d75 6c746970  ct -..- 3)Multip
 0e80 6c79202d 0a002d20 34294578 6974202d  ly -..- 4)Exit -
 0e90 0a00202d 2000203d 2000               .. - . = .      
Contents of section .eh_frame_hdr:
 0e9c 011b033b 50000000 09000000 c4f9ffff  ...;P...........
 0eac 9c000000 44faffff c4000000 54faffff  ....D.......T...
 0ebc 6c000000 5efbffff dc000000 d7fbffff  l...^...........
 0ecc fc000000 81feffff 1c010000 cafeffff  ................
 0edc 3c010000 e4feffff 5c010000 54ffffff  <.......\...T...
 0eec a4010000                             ....            
Contents of section .eh_frame:
 0ef0 14000000 00000000 017a5200 01781001  .........zR..x..
 0f00 1b0c0708 90010710 14000000 1c000000  ................
 0f10 e0f9ffff 2b000000 00000000 00000000  ....+...........
 0f20 14000000 00000000 017a5200 01781001  .........zR..x..
 0f30 1b0c0708 90010000 24000000 1c000000  ........$.......
 0f40 20f9ffff 80000000 000e1046 0e184a0f   ..........F..J.
 0f50 0b770880 003f1a3b 2a332422 00000000  .w...?.;*3$"....
 0f60 14000000 44000000 78f9ffff 08000000  ....D...x.......
 0f70 00000000 00000000 1c000000 5c000000  ............\...
 0f80 7afaffff 79000000 00410e10 8602430d  z...y....A....C.
 0f90 0602740c 07080000 1c000000 7c000000  ..t.........|...
 0fa0 d3faffff aa020000 00410e10 8602430d  .........A....C.
 0fb0 0603a502 0c070800 1c000000 9c000000  ................
 0fc0 5dfdffff 49000000 00410e10 8602430d  ]...I....A....C.
 0fd0 0602440c 07080000 1c000000 bc000000  ..D.............
 0fe0 86fdffff 15000000 00410e10 8602430d  .........A....C.
 0ff0 06500c07 08000000 44000000 dc000000  .P......D.......
 1000 80fdffff 65000000 00420e10 8f02420e  ....e....B....B.
 1010 188e0345 0e208d04 420e288c 05480e30  ...E. ..B.(..H.0
 1020 8606480e 3883074d 0e40720e 38410e30  ..H.8..M.@r.8A.0
 1030 410e2842 0e20420e 18420e10 420e0800  A.(B. B..B..B...
 1040 10000000 24010000 a8fdffff 02000000  ....$...........
 1050 00000000 00000000                    ........        
Contents of section .init_array:
 201d60 f0090000 00000000 660d0000 00000000  ........f.......
Contents of section .fini_array:
 201d70 b0090000 00000000                    ........        
Contents of section .dynamic:
 201d78 01000000 00000000 01000000 00000000  ................
 201d88 01000000 00000000 31010000 00000000  ........1.......
 201d98 0c000000 00000000 48080000 00000000  ........H.......
 201da8 0d000000 00000000 f40d0000 00000000  ................
 201db8 19000000 00000000 601d2000 00000000  ........`. .....
 201dc8 1b000000 00000000 10000000 00000000  ................
 201dd8 1a000000 00000000 701d2000 00000000  ........p. .....
 201de8 1c000000 00000000 08000000 00000000  ................
 201df8 f5feff6f 00000000 98020000 00000000  ...o............
 201e08 05000000 00000000 58040000 00000000  ........X.......
 201e18 06000000 00000000 c0020000 00000000  ................
 201e28 0a000000 00000000 9c010000 00000000  ................
 201e38 0b000000 00000000 18000000 00000000  ................
 201e48 15000000 00000000 00000000 00000000  ................
 201e58 03000000 00000000 781f2000 00000000  ........x. .....
 201e68 02000000 00000000 a8000000 00000000  ................
 201e78 14000000 00000000 07000000 00000000  ................
 201e88 17000000 00000000 a0070000 00000000  ................
 201e98 07000000 00000000 68060000 00000000  ........h.......
 201ea8 08000000 00000000 38010000 00000000  ........8.......
 201eb8 09000000 00000000 18000000 00000000  ................
 201ec8 1e000000 00000000 08000000 00000000  ................
 201ed8 fbffff6f 00000000 01000008 00000000  ...o............
 201ee8 feffff6f 00000000 18060000 00000000  ...o............
 201ef8 ffffff6f 00000000 02000000 00000000  ...o............
 201f08 f0ffff6f 00000000 f4050000 00000000  ...o............
 201f18 f9ffff6f 00000000 04000000 00000000  ...o............
 201f28 00000000 00000000 00000000 00000000  ................
 201f38 00000000 00000000 00000000 00000000  ................
 201f48 00000000 00000000 00000000 00000000  ................
 201f58 00000000 00000000 00000000 00000000  ................
 201f68 00000000 00000000 00000000 00000000  ................
Contents of section .got:
 201f78 781d2000 00000000 00000000 00000000  x. .............
 201f88 00000000 00000000 76080000 00000000  ........v.......
 201f98 86080000 00000000 96080000 00000000  ................
 201fa8 a6080000 00000000 b6080000 00000000  ................
 201fb8 c6080000 00000000 d6080000 00000000  ................
 201fc8 00000000 00000000 00000000 00000000  ................
 201fd8 00000000 00000000 00000000 00000000  ................
 201fe8 00000000 00000000 00000000 00000000  ................
 201ff8 00000000 00000000                    ........        
Contents of section .data:
 202000 00000000 00000000 08202000 00000000  .........  .....
Contents of section .comment:
 0000 4743433a 20285562 756e7475 20372e35  GCC: (Ubuntu 7.5
 0010 2e302d33 7562756e 7475317e 31382e30  .0-3ubuntu1~18.0
 0020 34292037 2e352e30 00                 4) 7.5.0.       

Disassembly of section .init:

0000000000000848 <_init>:
 848:	48 83 ec 08          	sub    $0x8,%rsp
 84c:	48 8b 05 95 17 20 00 	mov    0x201795(%rip),%rax        # 201fe8 <__gmon_start__>
 853:	48 85 c0             	test   %rax,%rax
 856:	74 02                	je     85a <_init+0x12>
 858:	ff d0                	callq  *%rax
 85a:	48 83 c4 08          	add    $0x8,%rsp
 85e:	c3                   	retq   

Disassembly of section .plt:

0000000000000860 <.plt>:
 860:	ff 35 1a 17 20 00    	pushq  0x20171a(%rip)        # 201f80 <_GLOBAL_OFFSET_TABLE_+0x8>
 866:	ff 25 1c 17 20 00    	jmpq   *0x20171c(%rip)        # 201f88 <_GLOBAL_OFFSET_TABLE_+0x10>
 86c:	0f 1f 40 00          	nopl   0x0(%rax)

0000000000000870 <_ZNSirsERi@plt>:
 870:	ff 25 1a 17 20 00    	jmpq   *0x20171a(%rip)        # 201f90 <_ZNSirsERi@GLIBCXX_3.4>
 876:	68 00 00 00 00       	pushq  $0x0
 87b:	e9 e0 ff ff ff       	jmpq   860 <.plt>

0000000000000880 <__cxa_atexit@plt>:
 880:	ff 25 12 17 20 00    	jmpq   *0x201712(%rip)        # 201f98 <__cxa_atexit@GLIBC_2.2.5>
 886:	68 01 00 00 00       	pushq  $0x1
 88b:	e9 d0 ff ff ff       	jmpq   860 <.plt>

0000000000000890 <_ZStlsISt11char_traitsIcEERSt13basic_ostreamIcT_ES5_PKc@plt>:
 890:	ff 25 0a 17 20 00    	jmpq   *0x20170a(%rip)        # 201fa0 <_ZStlsISt11char_traitsIcEERSt13basic_ostreamIcT_ES5_PKc@GLIBCXX_3.4>
 896:	68 02 00 00 00       	pushq  $0x2
 89b:	e9 c0 ff ff ff       	jmpq   860 <.plt>

00000000000008a0 <_ZNSolsEPFRSoS_E@plt>:
 8a0:	ff 25 02 17 20 00    	jmpq   *0x201702(%rip)        # 201fa8 <_ZNSolsEPFRSoS_E@GLIBCXX_3.4>
 8a6:	68 03 00 00 00       	pushq  $0x3
 8ab:	e9 b0 ff ff ff       	jmpq   860 <.plt>

00000000000008b0 <__stack_chk_fail@plt>:
 8b0:	ff 25 fa 16 20 00    	jmpq   *0x2016fa(%rip)        # 201fb0 <__stack_chk_fail@GLIBC_2.4>
 8b6:	68 04 00 00 00       	pushq  $0x4
 8bb:	e9 a0 ff ff ff       	jmpq   860 <.plt>

00000000000008c0 <_ZNSt8ios_base4InitC1Ev@plt>:
 8c0:	ff 25 f2 16 20 00    	jmpq   *0x2016f2(%rip)        # 201fb8 <_ZNSt8ios_base4InitC1Ev@GLIBCXX_3.4>
 8c6:	68 05 00 00 00       	pushq  $0x5
 8cb:	e9 90 ff ff ff       	jmpq   860 <.plt>

00000000000008d0 <_ZNSolsEi@plt>:
 8d0:	ff 25 ea 16 20 00    	jmpq   *0x2016ea(%rip)        # 201fc0 <_ZNSolsEi@GLIBCXX_3.4>
 8d6:	68 06 00 00 00       	pushq  $0x6
 8db:	e9 80 ff ff ff       	jmpq   860 <.plt>

Disassembly of section .plt.got:

00000000000008e0 <__cxa_finalize@plt>:
 8e0:	ff 25 e2 16 20 00    	jmpq   *0x2016e2(%rip)        # 201fc8 <__cxa_finalize@GLIBC_2.2.5>
 8e6:	66 90                	xchg   %ax,%ax

Disassembly of section .text:

00000000000008f0 <_start>:
 8f0:	31 ed                	xor    %ebp,%ebp
 8f2:	49 89 d1             	mov    %rdx,%r9
 8f5:	5e                   	pop    %rsi
 8f6:	48 89 e2             	mov    %rsp,%rdx
 8f9:	48 83 e4 f0          	and    $0xfffffffffffffff0,%rsp
 8fd:	50                   	push   %rax
 8fe:	54                   	push   %rsp
 8ff:	4c 8d 05 ea 04 00 00 	lea    0x4ea(%rip),%r8        # df0 <__libc_csu_fini>
 906:	48 8d 0d 73 04 00 00 	lea    0x473(%rip),%rcx        # d80 <__libc_csu_init>
 90d:	48 8d 3d 5f 01 00 00 	lea    0x15f(%rip),%rdi        # a73 <main>
 914:	ff 15 c6 16 20 00    	callq  *0x2016c6(%rip)        # 201fe0 <__libc_start_main@GLIBC_2.2.5>
 91a:	f4                   	hlt    
 91b:	0f 1f 44 00 00       	nopl   0x0(%rax,%rax,1)

0000000000000920 <deregister_tm_clones>:
 920:	48 8d 3d e9 16 20 00 	lea    0x2016e9(%rip),%rdi        # 202010 <__TMC_END__>
 927:	55                   	push   %rbp
 928:	48 8d 05 e1 16 20 00 	lea    0x2016e1(%rip),%rax        # 202010 <__TMC_END__>
 92f:	48 39 f8             	cmp    %rdi,%rax
 932:	48 89 e5             	mov    %rsp,%rbp
 935:	74 19                	je     950 <deregister_tm_clones+0x30>
 937:	48 8b 05 9a 16 20 00 	mov    0x20169a(%rip),%rax        # 201fd8 <_ITM_deregisterTMCloneTable>
 93e:	48 85 c0             	test   %rax,%rax
 941:	74 0d                	je     950 <deregister_tm_clones+0x30>
 943:	5d                   	pop    %rbp
 944:	ff e0                	jmpq   *%rax
 946:	66 2e 0f 1f 84 00 00 	nopw   %cs:0x0(%rax,%rax,1)
 94d:	00 00 00 
 950:	5d                   	pop    %rbp
 951:	c3                   	retq   
 952:	0f 1f 40 00          	nopl   0x0(%rax)
 956:	66 2e 0f 1f 84 00 00 	nopw   %cs:0x0(%rax,%rax,1)
 95d:	00 00 00 

0000000000000960 <register_tm_clones>:
 960:	48 8d 3d a9 16 20 00 	lea    0x2016a9(%rip),%rdi        # 202010 <__TMC_END__>
 967:	48 8d 35 a2 16 20 00 	lea    0x2016a2(%rip),%rsi        # 202010 <__TMC_END__>
 96e:	55                   	push   %rbp
 96f:	48 29 fe             	sub    %rdi,%rsi
 972:	48 89 e5             	mov    %rsp,%rbp
 975:	48 c1 fe 03          	sar    $0x3,%rsi
 979:	48 89 f0             	mov    %rsi,%rax
 97c:	48 c1 e8 3f          	shr    $0x3f,%rax
 980:	48 01 c6             	add    %rax,%rsi
 983:	48 d1 fe             	sar    %rsi
 986:	74 18                	je     9a0 <register_tm_clones+0x40>
 988:	48 8b 05 61 16 20 00 	mov    0x201661(%rip),%rax        # 201ff0 <_ITM_registerTMCloneTable>
 98f:	48 85 c0             	test   %rax,%rax
 992:	74 0c                	je     9a0 <register_tm_clones+0x40>
 994:	5d                   	pop    %rbp
 995:	ff e0                	jmpq   *%rax
 997:	66 0f 1f 84 00 00 00 	nopw   0x0(%rax,%rax,1)
 99e:	00 00 
 9a0:	5d                   	pop    %rbp
 9a1:	c3                   	retq   
 9a2:	0f 1f 40 00          	nopl   0x0(%rax)
 9a6:	66 2e 0f 1f 84 00 00 	nopw   %cs:0x0(%rax,%rax,1)
 9ad:	00 00 00 

00000000000009b0 <__do_global_dtors_aux>:
 9b0:	80 3d a1 18 20 00 00 	cmpb   $0x0,0x2018a1(%rip)        # 202258 <completed.7698>
 9b7:	75 2f                	jne    9e8 <__do_global_dtors_aux+0x38>
 9b9:	48 83 3d 07 16 20 00 	cmpq   $0x0,0x201607(%rip)        # 201fc8 <__cxa_finalize@GLIBC_2.2.5>
 9c0:	00 
 9c1:	55                   	push   %rbp
 9c2:	48 89 e5             	mov    %rsp,%rbp
 9c5:	74 0c                	je     9d3 <__do_global_dtors_aux+0x23>
 9c7:	48 8b 3d 3a 16 20 00 	mov    0x20163a(%rip),%rdi        # 202008 <__dso_handle>
 9ce:	e8 0d ff ff ff       	callq  8e0 <__cxa_finalize@plt>
 9d3:	e8 48 ff ff ff       	callq  920 <deregister_tm_clones>
 9d8:	c6 05 79 18 20 00 01 	movb   $0x1,0x201879(%rip)        # 202258 <completed.7698>
 9df:	5d                   	pop    %rbp
 9e0:	c3                   	retq   
 9e1:	0f 1f 80 00 00 00 00 	nopl   0x0(%rax)
 9e8:	f3 c3                	repz retq 
 9ea:	66 0f 1f 44 00 00    	nopw   0x0(%rax,%rax,1)

00000000000009f0 <frame_dummy>:
 9f0:	55                   	push   %rbp
 9f1:	48 89 e5             	mov    %rsp,%rbp
 9f4:	5d                   	pop    %rbp
 9f5:	e9 66 ff ff ff       	jmpq   960 <register_tm_clones>

00000000000009fa <_Z11DisplayMenuv>:
 9fa:	55                   	push   %rbp
 9fb:	48 89 e5             	mov    %rsp,%rbp
 9fe:	48 8d 35 00 04 00 00 	lea    0x400(%rip),%rsi        # e05 <_ZStL19piecewise_construct+0x1>
 a05:	48 8d 3d 14 16 20 00 	lea    0x201614(%rip),%rdi        # 202020 <_ZSt4cout@@GLIBCXX_3.4>
 a0c:	e8 7f fe ff ff       	callq  890 <_ZStlsISt11char_traitsIcEERSt13basic_ostreamIcT_ES5_PKc@plt>
 a11:	48 8d 35 fe 03 00 00 	lea    0x3fe(%rip),%rsi        # e16 <_ZStL19piecewise_construct+0x12>
 a18:	48 8d 3d 01 16 20 00 	lea    0x201601(%rip),%rdi        # 202020 <_ZSt4cout@@GLIBCXX_3.4>
 a1f:	e8 6c fe ff ff       	callq  890 <_ZStlsISt11char_traitsIcEERSt13basic_ostreamIcT_ES5_PKc@plt>
 a24:	48 8d 35 f5 03 00 00 	lea    0x3f5(%rip),%rsi        # e20 <_ZStL19piecewise_construct+0x1c>
 a2b:	48 8d 3d ee 15 20 00 	lea    0x2015ee(%rip),%rdi        # 202020 <_ZSt4cout@@GLIBCXX_3.4>
 a32:	e8 59 fe ff ff       	callq  890 <_ZStlsISt11char_traitsIcEERSt13basic_ostreamIcT_ES5_PKc@plt>
 a37:	48 8d 35 f1 03 00 00 	lea    0x3f1(%rip),%rsi        # e2f <_ZStL19piecewise_construct+0x2b>
 a3e:	48 8d 3d db 15 20 00 	lea    0x2015db(%rip),%rdi        # 202020 <_ZSt4cout@@GLIBCXX_3.4>
 a45:	e8 46 fe ff ff       	callq  890 <_ZStlsISt11char_traitsIcEERSt13basic_ostreamIcT_ES5_PKc@plt>
 a4a:	48 8d 35 ed 03 00 00 	lea    0x3ed(%rip),%rsi        # e3e <_ZStL19piecewise_construct+0x3a>
 a51:	48 8d 3d c8 15 20 00 	lea    0x2015c8(%rip),%rdi        # 202020 <_ZSt4cout@@GLIBCXX_3.4>
 a58:	e8 33 fe ff ff       	callq  890 <_ZStlsISt11char_traitsIcEERSt13basic_ostreamIcT_ES5_PKc@plt>
 a5d:	48 8d 35 a1 03 00 00 	lea    0x3a1(%rip),%rsi        # e05 <_ZStL19piecewise_construct+0x1>
 a64:	48 8d 3d b5 15 20 00 	lea    0x2015b5(%rip),%rdi        # 202020 <_ZSt4cout@@GLIBCXX_3.4>
 a6b:	e8 20 fe ff ff       	callq  890 <_ZStlsISt11char_traitsIcEERSt13basic_ostreamIcT_ES5_PKc@plt>
 a70:	90                   	nop
 a71:	5d                   	pop    %rbp
 a72:	c3                   	retq   

0000000000000a73 <main>:
 a73:	55                   	push   %rbp
 a74:	48 89 e5             	mov    %rsp,%rbp
 a77:	48 83 ec 20          	sub    $0x20,%rsp
 a7b:	64 48 8b 04 25 28 00 	mov    %fs:0x28,%rax
 a82:	00 00 
 a84:	48 89 45 f8          	mov    %rax,-0x8(%rbp)
 a88:	31 c0                	xor    %eax,%eax
 a8a:	c7 45 ec 00 00 00 00 	movl   $0x0,-0x14(%rbp)
 a91:	8b 45 ec             	mov    -0x14(%rbp),%eax
 a94:	83 f8 05             	cmp    $0x5,%eax
 a97:	0f 84 65 02 00 00    	je     d02 <main+0x28f>
 a9d:	48 8d 35 a5 03 00 00 	lea    0x3a5(%rip),%rsi        # e49 <_ZStL19piecewise_construct+0x45>
 aa4:	48 8d 3d 75 15 20 00 	lea    0x201575(%rip),%rdi        # 202020 <_ZSt4cout@@GLIBCXX_3.4>
 aab:	e8 e0 fd ff ff       	callq  890 <_ZStlsISt11char_traitsIcEERSt13basic_ostreamIcT_ES5_PKc@plt>
 ab0:	48 8d 35 a4 03 00 00 	lea    0x3a4(%rip),%rsi        # e5b <_ZStL19piecewise_construct+0x57>
 ab7:	48 8d 3d 62 15 20 00 	lea    0x201562(%rip),%rdi        # 202020 <_ZSt4cout@@GLIBCXX_3.4>
 abe:	e8 cd fd ff ff       	callq  890 <_ZStlsISt11char_traitsIcEERSt13basic_ostreamIcT_ES5_PKc@plt>
 ac3:	48 8d 35 9c 03 00 00 	lea    0x39c(%rip),%rsi        # e66 <_ZStL19piecewise_construct+0x62>
 aca:	48 8d 3d 4f 15 20 00 	lea    0x20154f(%rip),%rdi        # 202020 <_ZSt4cout@@GLIBCXX_3.4>
 ad1:	e8 ba fd ff ff       	callq  890 <_ZStlsISt11char_traitsIcEERSt13basic_ostreamIcT_ES5_PKc@plt>
 ad6:	48 8d 35 99 03 00 00 	lea    0x399(%rip),%rsi        # e76 <_ZStL19piecewise_construct+0x72>
 add:	48 8d 3d 3c 15 20 00 	lea    0x20153c(%rip),%rdi        # 202020 <_ZSt4cout@@GLIBCXX_3.4>
 ae4:	e8 a7 fd ff ff       	callq  890 <_ZStlsISt11char_traitsIcEERSt13basic_ostreamIcT_ES5_PKc@plt>
 ae9:	48 8d 35 96 03 00 00 	lea    0x396(%rip),%rsi        # e86 <_ZStL19piecewise_construct+0x82>
 af0:	48 8d 3d 29 15 20 00 	lea    0x201529(%rip),%rdi        # 202020 <_ZSt4cout@@GLIBCXX_3.4>
 af7:	e8 94 fd ff ff       	callq  890 <_ZStlsISt11char_traitsIcEERSt13basic_ostreamIcT_ES5_PKc@plt>
 afc:	48 8d 35 46 03 00 00 	lea    0x346(%rip),%rsi        # e49 <_ZStL19piecewise_construct+0x45>
 b03:	48 8d 3d 16 15 20 00 	lea    0x201516(%rip),%rdi        # 202020 <_ZSt4cout@@GLIBCXX_3.4>
 b0a:	e8 81 fd ff ff       	callq  890 <_ZStlsISt11char_traitsIcEERSt13basic_ostreamIcT_ES5_PKc@plt>
 b0f:	48 8d 45 ec          	lea    -0x14(%rbp),%rax
 b13:	48 89 c6             	mov    %rax,%rsi
 b16:	48 8d 3d 23 16 20 00 	lea    0x201623(%rip),%rdi        # 202140 <_ZSt3cin@@GLIBCXX_3.4>
 b1d:	e8 4e fd ff ff       	callq  870 <_ZNSirsERi@plt>
 b22:	8b 45 ec             	mov    -0x14(%rbp),%eax
 b25:	83 f8 01             	cmp    $0x1,%eax
 b28:	0f 85 95 00 00 00    	jne    bc3 <main+0x150>
 b2e:	48 8d 45 f0          	lea    -0x10(%rbp),%rax
 b32:	48 89 c6             	mov    %rax,%rsi
 b35:	48 8d 3d 04 16 20 00 	lea    0x201604(%rip),%rdi        # 202140 <_ZSt3cin@@GLIBCXX_3.4>
 b3c:	e8 2f fd ff ff       	callq  870 <_ZNSirsERi@plt>
 b41:	48 89 c2             	mov    %rax,%rdx
 b44:	48 8d 45 f4          	lea    -0xc(%rbp),%rax
 b48:	48 89 c6             	mov    %rax,%rsi
 b4b:	48 89 d7             	mov    %rdx,%rdi
 b4e:	e8 1d fd ff ff       	callq  870 <_ZNSirsERi@plt>
 b53:	8b 45 f0             	mov    -0x10(%rbp),%eax
 b56:	89 c6                	mov    %eax,%esi
 b58:	48 8d 3d c1 14 20 00 	lea    0x2014c1(%rip),%rdi        # 202020 <_ZSt4cout@@GLIBCXX_3.4>
 b5f:	e8 6c fd ff ff       	callq  8d0 <_ZNSolsEi@plt>
 b64:	48 8d 35 27 03 00 00 	lea    0x327(%rip),%rsi        # e92 <_ZStL19piecewise_construct+0x8e>
 b6b:	48 89 c7             	mov    %rax,%rdi
 b6e:	e8 1d fd ff ff       	callq  890 <_ZStlsISt11char_traitsIcEERSt13basic_ostreamIcT_ES5_PKc@plt>
 b73:	48 89 c2             	mov    %rax,%rdx
 b76:	8b 45 f4             	mov    -0xc(%rbp),%eax
 b79:	89 c6                	mov    %eax,%esi
 b7b:	48 89 d7             	mov    %rdx,%rdi
 b7e:	e8 4d fd ff ff       	callq  8d0 <_ZNSolsEi@plt>
 b83:	48 8d 35 0c 03 00 00 	lea    0x30c(%rip),%rsi        # e96 <_ZStL19piecewise_construct+0x92>
 b8a:	48 89 c7             	mov    %rax,%rdi
 b8d:	e8 fe fc ff ff       	callq  890 <_ZStlsISt11char_traitsIcEERSt13basic_ostreamIcT_ES5_PKc@plt>
 b92:	48 89 c1             	mov    %rax,%rcx
 b95:	8b 55 f0             	mov    -0x10(%rbp),%edx
 b98:	8b 45 f4             	mov    -0xc(%rbp),%eax
 b9b:	29 c2                	sub    %eax,%edx
 b9d:	89 d0                	mov    %edx,%eax
 b9f:	89 c6                	mov    %eax,%esi
 ba1:	48 89 cf             	mov    %rcx,%rdi
 ba4:	e8 27 fd ff ff       	callq  8d0 <_ZNSolsEi@plt>
 ba9:	48 89 c2             	mov    %rax,%rdx
 bac:	48 8b 05 1d 14 20 00 	mov    0x20141d(%rip),%rax        # 201fd0 <_ZSt4endlIcSt11char_traitsIcEERSt13basic_ostreamIT_T0_ES6_@GLIBCXX_3.4>
 bb3:	48 89 c6             	mov    %rax,%rsi
 bb6:	48 89 d7             	mov    %rdx,%rdi
 bb9:	e8 e2 fc ff ff       	callq  8a0 <_ZNSolsEPFRSoS_E@plt>
 bbe:	e9 ce fe ff ff       	jmpq   a91 <main+0x1e>
 bc3:	8b 45 ec             	mov    -0x14(%rbp),%eax
 bc6:	83 f8 02             	cmp    $0x2,%eax
 bc9:	0f 85 93 00 00 00    	jne    c62 <main+0x1ef>
 bcf:	48 8d 45 f0          	lea    -0x10(%rbp),%rax
 bd3:	48 89 c6             	mov    %rax,%rsi
 bd6:	48 8d 3d 63 15 20 00 	lea    0x201563(%rip),%rdi        # 202140 <_ZSt3cin@@GLIBCXX_3.4>
 bdd:	e8 8e fc ff ff       	callq  870 <_ZNSirsERi@plt>
 be2:	48 89 c2             	mov    %rax,%rdx
 be5:	48 8d 45 f4          	lea    -0xc(%rbp),%rax
 be9:	48 89 c6             	mov    %rax,%rsi
 bec:	48 89 d7             	mov    %rdx,%rdi
 bef:	e8 7c fc ff ff       	callq  870 <_ZNSirsERi@plt>
 bf4:	8b 45 f0             	mov    -0x10(%rbp),%eax
 bf7:	89 c6                	mov    %eax,%esi
 bf9:	48 8d 3d 20 14 20 00 	lea    0x201420(%rip),%rdi        # 202020 <_ZSt4cout@@GLIBCXX_3.4>
 c00:	e8 cb fc ff ff       	callq  8d0 <_ZNSolsEi@plt>
 c05:	48 8d 35 86 02 00 00 	lea    0x286(%rip),%rsi        # e92 <_ZStL19piecewise_construct+0x8e>
 c0c:	48 89 c7             	mov    %rax,%rdi
 c0f:	e8 7c fc ff ff       	callq  890 <_ZStlsISt11char_traitsIcEERSt13basic_ostreamIcT_ES5_PKc@plt>
 c14:	48 89 c2             	mov    %rax,%rdx
 c17:	8b 45 f4             	mov    -0xc(%rbp),%eax
 c1a:	89 c6                	mov    %eax,%esi
 c1c:	48 89 d7             	mov    %rdx,%rdi
 c1f:	e8 ac fc ff ff       	callq  8d0 <_ZNSolsEi@plt>
 c24:	48 8d 35 6b 02 00 00 	lea    0x26b(%rip),%rsi        # e96 <_ZStL19piecewise_construct+0x92>
 c2b:	48 89 c7             	mov    %rax,%rdi
 c2e:	e8 5d fc ff ff       	callq  890 <_ZStlsISt11char_traitsIcEERSt13basic_ostreamIcT_ES5_PKc@plt>
 c33:	48 89 c1             	mov    %rax,%rcx
 c36:	8b 55 f0             	mov    -0x10(%rbp),%edx
 c39:	8b 45 f4             	mov    -0xc(%rbp),%eax
 c3c:	01 d0                	add    %edx,%eax
 c3e:	89 c6                	mov    %eax,%esi
 c40:	48 89 cf             	mov    %rcx,%rdi
 c43:	e8 88 fc ff ff       	callq  8d0 <_ZNSolsEi@plt>
 c48:	48 89 c2             	mov    %rax,%rdx
 c4b:	48 8b 05 7e 13 20 00 	mov    0x20137e(%rip),%rax        # 201fd0 <_ZSt4endlIcSt11char_traitsIcEERSt13basic_ostreamIT_T0_ES6_@GLIBCXX_3.4>
 c52:	48 89 c6             	mov    %rax,%rsi
 c55:	48 89 d7             	mov    %rdx,%rdi
 c58:	e8 43 fc ff ff       	callq  8a0 <_ZNSolsEPFRSoS_E@plt>
 c5d:	e9 2f fe ff ff       	jmpq   a91 <main+0x1e>
 c62:	8b 45 ec             	mov    -0x14(%rbp),%eax
 c65:	83 f8 03             	cmp    $0x3,%eax
 c68:	0f 85 23 fe ff ff    	jne    a91 <main+0x1e>
 c6e:	48 8d 45 f0          	lea    -0x10(%rbp),%rax
 c72:	48 89 c6             	mov    %rax,%rsi
 c75:	48 8d 3d c4 14 20 00 	lea    0x2014c4(%rip),%rdi        # 202140 <_ZSt3cin@@GLIBCXX_3.4>
 c7c:	e8 ef fb ff ff       	callq  870 <_ZNSirsERi@plt>
 c81:	48 89 c2             	mov    %rax,%rdx
 c84:	48 8d 45 f4          	lea    -0xc(%rbp),%rax
 c88:	48 89 c6             	mov    %rax,%rsi
 c8b:	48 89 d7             	mov    %rdx,%rdi
 c8e:	e8 dd fb ff ff       	callq  870 <_ZNSirsERi@plt>
 c93:	8b 45 f0             	mov    -0x10(%rbp),%eax
 c96:	89 c6                	mov    %eax,%esi
 c98:	48 8d 3d 81 13 20 00 	lea    0x201381(%rip),%rdi        # 202020 <_ZSt4cout@@GLIBCXX_3.4>
 c9f:	e8 2c fc ff ff       	callq  8d0 <_ZNSolsEi@plt>
 ca4:	48 8d 35 e7 01 00 00 	lea    0x1e7(%rip),%rsi        # e92 <_ZStL19piecewise_construct+0x8e>
 cab:	48 89 c7             	mov    %rax,%rdi
 cae:	e8 dd fb ff ff       	callq  890 <_ZStlsISt11char_traitsIcEERSt13basic_ostreamIcT_ES5_PKc@plt>
 cb3:	48 89 c2             	mov    %rax,%rdx
 cb6:	8b 45 f4             	mov    -0xc(%rbp),%eax
 cb9:	89 c6                	mov    %eax,%esi
 cbb:	48 89 d7             	mov    %rdx,%rdi
 cbe:	e8 0d fc ff ff       	callq  8d0 <_ZNSolsEi@plt>
 cc3:	48 8d 35 cc 01 00 00 	lea    0x1cc(%rip),%rsi        # e96 <_ZStL19piecewise_construct+0x92>
 cca:	48 89 c7             	mov    %rax,%rdi
 ccd:	e8 be fb ff ff       	callq  890 <_ZStlsISt11char_traitsIcEERSt13basic_ostreamIcT_ES5_PKc@plt>
 cd2:	48 89 c1             	mov    %rax,%rcx
 cd5:	8b 45 f0             	mov    -0x10(%rbp),%eax
 cd8:	8b 75 f4             	mov    -0xc(%rbp),%esi
 cdb:	99                   	cltd   
 cdc:	f7 fe                	idiv   %esi
 cde:	89 c6                	mov    %eax,%esi
 ce0:	48 89 cf             	mov    %rcx,%rdi
 ce3:	e8 e8 fb ff ff       	callq  8d0 <_ZNSolsEi@plt>
 ce8:	48 89 c2             	mov    %rax,%rdx
 ceb:	48 8b 05 de 12 20 00 	mov    0x2012de(%rip),%rax        # 201fd0 <_ZSt4endlIcSt11char_traitsIcEERSt13basic_ostreamIT_T0_ES6_@GLIBCXX_3.4>
 cf2:	48 89 c6             	mov    %rax,%rsi
 cf5:	48 89 d7             	mov    %rdx,%rdi
 cf8:	e8 a3 fb ff ff       	callq  8a0 <_ZNSolsEPFRSoS_E@plt>
 cfd:	e9 8f fd ff ff       	jmpq   a91 <main+0x1e>
 d02:	b8 00 00 00 00       	mov    $0x0,%eax
 d07:	48 8b 4d f8          	mov    -0x8(%rbp),%rcx
 d0b:	64 48 33 0c 25 28 00 	xor    %fs:0x28,%rcx
 d12:	00 00 
 d14:	74 05                	je     d1b <main+0x2a8>
 d16:	e8 95 fb ff ff       	callq  8b0 <__stack_chk_fail@plt>
 d1b:	c9                   	leaveq 
 d1c:	c3                   	retq   

0000000000000d1d <_Z41__static_initialization_and_destruction_0ii>:
 d1d:	55                   	push   %rbp
 d1e:	48 89 e5             	mov    %rsp,%rbp
 d21:	48 83 ec 10          	sub    $0x10,%rsp
 d25:	89 7d fc             	mov    %edi,-0x4(%rbp)
 d28:	89 75 f8             	mov    %esi,-0x8(%rbp)
 d2b:	83 7d fc 01          	cmpl   $0x1,-0x4(%rbp)
 d2f:	75 32                	jne    d63 <_Z41__static_initialization_and_destruction_0ii+0x46>
 d31:	81 7d f8 ff ff 00 00 	cmpl   $0xffff,-0x8(%rbp)
 d38:	75 29                	jne    d63 <_Z41__static_initialization_and_destruction_0ii+0x46>
 d3a:	48 8d 3d 18 15 20 00 	lea    0x201518(%rip),%rdi        # 202259 <_ZStL8__ioinit>
 d41:	e8 7a fb ff ff       	callq  8c0 <_ZNSt8ios_base4InitC1Ev@plt>
 d46:	48 8d 15 bb 12 20 00 	lea    0x2012bb(%rip),%rdx        # 202008 <__dso_handle>
 d4d:	48 8d 35 05 15 20 00 	lea    0x201505(%rip),%rsi        # 202259 <_ZStL8__ioinit>
 d54:	48 8b 05 9d 12 20 00 	mov    0x20129d(%rip),%rax        # 201ff8 <_ZNSt8ios_base4InitD1Ev@GLIBCXX_3.4>
 d5b:	48 89 c7             	mov    %rax,%rdi
 d5e:	e8 1d fb ff ff       	callq  880 <__cxa_atexit@plt>
 d63:	90                   	nop
 d64:	c9                   	leaveq 
 d65:	c3                   	retq   

0000000000000d66 <_GLOBAL__sub_I__Z11DisplayMenuv>:
 d66:	55                   	push   %rbp
 d67:	48 89 e5             	mov    %rsp,%rbp
 d6a:	be ff ff 00 00       	mov    $0xffff,%esi
 d6f:	bf 01 00 00 00       	mov    $0x1,%edi
 d74:	e8 a4 ff ff ff       	callq  d1d <_Z41__static_initialization_and_destruction_0ii>
 d79:	5d                   	pop    %rbp
 d7a:	c3                   	retq   
 d7b:	0f 1f 44 00 00       	nopl   0x0(%rax,%rax,1)

0000000000000d80 <__libc_csu_init>:
 d80:	41 57                	push   %r15
 d82:	41 56                	push   %r14
 d84:	49 89 d7             	mov    %rdx,%r15
 d87:	41 55                	push   %r13
 d89:	41 54                	push   %r12
 d8b:	4c 8d 25 ce 0f 20 00 	lea    0x200fce(%rip),%r12        # 201d60 <__frame_dummy_init_array_entry>
 d92:	55                   	push   %rbp
 d93:	48 8d 2d d6 0f 20 00 	lea    0x200fd6(%rip),%rbp        # 201d70 <__init_array_end>
 d9a:	53                   	push   %rbx
 d9b:	41 89 fd             	mov    %edi,%r13d
 d9e:	49 89 f6             	mov    %rsi,%r14
 da1:	4c 29 e5             	sub    %r12,%rbp
 da4:	48 83 ec 08          	sub    $0x8,%rsp
 da8:	48 c1 fd 03          	sar    $0x3,%rbp
 dac:	e8 97 fa ff ff       	callq  848 <_init>
 db1:	48 85 ed             	test   %rbp,%rbp
 db4:	74 20                	je     dd6 <__libc_csu_init+0x56>
 db6:	31 db                	xor    %ebx,%ebx
 db8:	0f 1f 84 00 00 00 00 	nopl   0x0(%rax,%rax,1)
 dbf:	00 
 dc0:	4c 89 fa             	mov    %r15,%rdx
 dc3:	4c 89 f6             	mov    %r14,%rsi
 dc6:	44 89 ef             	mov    %r13d,%edi
 dc9:	41 ff 14 dc          	callq  *(%r12,%rbx,8)
 dcd:	48 83 c3 01          	add    $0x1,%rbx
 dd1:	48 39 dd             	cmp    %rbx,%rbp
 dd4:	75 ea                	jne    dc0 <__libc_csu_init+0x40>
 dd6:	48 83 c4 08          	add    $0x8,%rsp
 dda:	5b                   	pop    %rbx
 ddb:	5d                   	pop    %rbp
 ddc:	41 5c                	pop    %r12
 dde:	41 5d                	pop    %r13
 de0:	41 5e                	pop    %r14
 de2:	41 5f                	pop    %r15
 de4:	c3                   	retq   
 de5:	90                   	nop
 de6:	66 2e 0f 1f 84 00 00 	nopw   %cs:0x0(%rax,%rax,1)
 ded:	00 00 00 

0000000000000df0 <__libc_csu_fini>:
 df0:	f3 c3                	repz retq 

Disassembly of section .fini:

0000000000000df4 <_fini>:
 df4:	48 83 ec 08          	sub    $0x8,%rsp
 df8:	48 83 c4 08          	add    $0x8,%rsp
 dfc:	c3                   	retq   
